Archive member included because of file (symbol)

C:\Users\boomw\Documents\lpcxpresso-workspace-wiz550s2e\wiznet_s2e_wiz550s2e_board\Release\libwiznet_s2e_wiz550s2e_board.a(board.o)
                              ./src/S2E/S2E.o (Board_LED_Set)
C:\Users\boomw\Documents\lpcxpresso-workspace-wiz550s2e\wiznet_s2e_wiz550s2e_board\Release\libwiznet_s2e_wiz550s2e_board.a(board_sysinit.o)
                              ./src/sysinit.o (Board_SystemInit)
C:\Users\boomw\Documents\lpcxpresso-workspace-wiz550s2e\lpc_chip_11exx\Release\liblpc_chip_11exx.a(chip_11xx.o)
                              ./src/main.o (SystemCoreClockUpdate)
C:\Users\boomw\Documents\lpcxpresso-workspace-wiz550s2e\lpc_chip_11exx\Release\liblpc_chip_11exx.a(clock_11xx.o)
                              C:\Users\boomw\Documents\lpcxpresso-workspace-wiz550s2e\wiznet_s2e_wiz550s2e_board\Release\libwiznet_s2e_wiz550s2e_board.a(board_sysinit.o) (Chip_Clock_SetSystemPLLSource)
C:\Users\boomw\Documents\lpcxpresso-workspace-wiz550s2e\lpc_chip_11exx\Release\liblpc_chip_11exx.a(gpio_11xx_1.o)
                              C:\Users\boomw\Documents\lpcxpresso-workspace-wiz550s2e\wiznet_s2e_wiz550s2e_board\Release\libwiznet_s2e_wiz550s2e_board.a(board.o) (Chip_GPIO_Init)
C:\Users\boomw\Documents\lpcxpresso-workspace-wiz550s2e\lpc_chip_11exx\Release\liblpc_chip_11exx.a(iocon_11xx.o)
                              ./src/PlatformHandler/sspHandler.o (Chip_IOCON_PinMuxSet)
C:\Users\boomw\Documents\lpcxpresso-workspace-wiz550s2e\lpc_chip_11exx\Release\liblpc_chip_11exx.a(ring_buffer.o)
                              ./src/PlatformHandler/uartHandler.o (RingBuffer_Init)
C:\Users\boomw\Documents\lpcxpresso-workspace-wiz550s2e\lpc_chip_11exx\Release\liblpc_chip_11exx.a(ssp_11xx.o)
                              ./src/PlatformHandler/sspHandler.o (Chip_SSP_WriteFrames_Blocking)
C:\Users\boomw\Documents\lpcxpresso-workspace-wiz550s2e\lpc_chip_11exx\Release\liblpc_chip_11exx.a(sysctl_11xx.o)
                              C:\Users\boomw\Documents\lpcxpresso-workspace-wiz550s2e\wiznet_s2e_wiz550s2e_board\Release\libwiznet_s2e_wiz550s2e_board.a(board_sysinit.o) (Chip_SYSCTL_PowerDown)
C:\Users\boomw\Documents\lpcxpresso-workspace-wiz550s2e\lpc_chip_11exx\Release\liblpc_chip_11exx.a(timer_11xx.o)
                              ./src/modbus/mbtimer.o (Chip_TIMER_Init)
C:\Users\boomw\Documents\lpcxpresso-workspace-wiz550s2e\lpc_chip_11exx\Release\liblpc_chip_11exx.a(uart_11xx.o)
                              ./src/PlatformHandler/uartHandler.o (Chip_UART_Init)
c:/nxp/lpcxpresso_7.5.0_254/lpcxpresso/tools/bin/../lib/gcc/arm-none-eabi/4.8.4/../../../../arm-none-eabi/lib/armv6-m\libcr_nohost.a(_cr__main.o)
                              ./src/cr_startup_lpc11exx.o (__main)
c:/nxp/lpcxpresso_7.5.0_254/lpcxpresso/tools/bin/../lib/gcc/arm-none-eabi/4.8.4/../../../../arm-none-eabi/lib/armv6-m\libcr_c.a(memcpy.o)
                              ./src/S2E/S2E.o (memcpy)
c:/nxp/lpcxpresso_7.5.0_254/lpcxpresso/tools/bin/../lib/gcc/arm-none-eabi/4.8.4/../../../../arm-none-eabi/lib/armv6-m\libcr_c.a(memset.o)
                              ./src/netutil/netutil.o (memset)
c:/nxp/lpcxpresso_7.5.0_254/lpcxpresso/tools/bin/../lib/gcc/arm-none-eabi/4.8.4/../../../../arm-none-eabi/lib/armv6-m\libcr_c.a(alloc.o)
                              ./src/Internet/httpServer/httpServer.o (malloc)
c:/nxp/lpcxpresso_7.5.0_254/lpcxpresso/tools/bin/../lib/gcc/arm-none-eabi/4.8.4/../../../../arm-none-eabi/lib/armv6-m\libcr_c.a(ctype.o)
                              ./src/ATcmd/atcmd.o (isalpha)
c:/nxp/lpcxpresso_7.5.0_254/lpcxpresso/tools/bin/../lib/gcc/arm-none-eabi/4.8.4/../../../../arm-none-eabi/lib/armv6-m\libcr_c.a(fpprintf.o)
                              ./src/netutil/netutil.o (sprintf)
c:/nxp/lpcxpresso_7.5.0_254/lpcxpresso/tools/bin/../lib/gcc/arm-none-eabi/4.8.4/../../../../arm-none-eabi/lib/armv6-m\libcr_c.a(initio.o)
                              c:/nxp/lpcxpresso_7.5.0_254/lpcxpresso/tools/bin/../lib/gcc/arm-none-eabi/4.8.4/../../../../arm-none-eabi/lib/armv6-m\libcr_nohost.a(_cr__main.o) (_initio)
c:/nxp/lpcxpresso_7.5.0_254/lpcxpresso/tools/bin/../lib/gcc/arm-none-eabi/4.8.4/../../../../arm-none-eabi/lib/armv6-m\libcr_c.a(memcmp.o)
                              ./src/modbus/mbtcp.o (memcmp)
c:/nxp/lpcxpresso_7.5.0_254/lpcxpresso/tools/bin/../lib/gcc/arm-none-eabi/4.8.4/../../../../arm-none-eabi/lib/armv6-m\libcr_c.a(printf.o)
                              c:/nxp/lpcxpresso_7.5.0_254/lpcxpresso/tools/bin/../lib/gcc/arm-none-eabi/4.8.4/../../../../arm-none-eabi/lib/armv6-m\libcr_c.a(fpprintf.o) (__vfprintf)
c:/nxp/lpcxpresso_7.5.0_254/lpcxpresso/tools/bin/../lib/gcc/arm-none-eabi/4.8.4/../../../../arm-none-eabi/lib/armv6-m\libcr_c.a(scanf.o)
                              ./src/Internet/SNMP/snmp.o (sscanf)
c:/nxp/lpcxpresso_7.5.0_254/lpcxpresso/tools/bin/../lib/gcc/arm-none-eabi/4.8.4/../../../../arm-none-eabi/lib/armv6-m\libcr_c.a(setvbuf.o)
                              c:/nxp/lpcxpresso_7.5.0_254/lpcxpresso/tools/bin/../lib/gcc/arm-none-eabi/4.8.4/../../../../arm-none-eabi/lib/armv6-m\libcr_c.a(initio.o) (setvbuf)
c:/nxp/lpcxpresso_7.5.0_254/lpcxpresso/tools/bin/../lib/gcc/arm-none-eabi/4.8.4/../../../../arm-none-eabi/lib/armv6-m\libcr_c.a(stdio.o)
                              c:/nxp/lpcxpresso_7.5.0_254/lpcxpresso/tools/bin/../lib/gcc/arm-none-eabi/4.8.4/../../../../arm-none-eabi/lib/armv6-m\libcr_c.a(fpprintf.o) (__Ciob)
c:/nxp/lpcxpresso_7.5.0_254/lpcxpresso/tools/bin/../lib/gcc/arm-none-eabi/4.8.4/../../../../arm-none-eabi/lib/armv6-m\libcr_c.a(strcat.o)
                              ./src/Internet/httpServer/httpParser.o (strcat)
c:/nxp/lpcxpresso_7.5.0_254/lpcxpresso/tools/bin/../lib/gcc/arm-none-eabi/4.8.4/../../../../arm-none-eabi/lib/armv6-m\libcr_c.a(strchr.o)
                              ./src/Internet/DNS/dns.o (strchr)
c:/nxp/lpcxpresso_7.5.0_254/lpcxpresso/tools/bin/../lib/gcc/arm-none-eabi/4.8.4/../../../../arm-none-eabi/lib/armv6-m\libcr_c.a(strcmp.o)
                              ./src/Internet/httpServer/httpParser.o (strcmp)
c:/nxp/lpcxpresso_7.5.0_254/lpcxpresso/tools/bin/../lib/gcc/arm-none-eabi/4.8.4/../../../../arm-none-eabi/lib/armv6-m\libcr_c.a(strcpy.o)
                              ./src/netutil/netutil.o (strcpy)
c:/nxp/lpcxpresso_7.5.0_254/lpcxpresso/tools/bin/../lib/gcc/arm-none-eabi/4.8.4/../../../../arm-none-eabi/lib/armv6-m\libcr_c.a(strlen.o)
                              ./src/S2E/S2E.o (strlen)
c:/nxp/lpcxpresso_7.5.0_254/lpcxpresso/tools/bin/../lib/gcc/arm-none-eabi/4.8.4/../../../../arm-none-eabi/lib/armv6-m\libcr_c.a(strncmp.o)
                              ./src/Internet/MQTT/MQTTPacket/src/MQTTPacket.o (strncmp)
c:/nxp/lpcxpresso_7.5.0_254/lpcxpresso/tools/bin/../lib/gcc/arm-none-eabi/4.8.4/../../../../arm-none-eabi/lib/armv6-m\libcr_c.a(strncpy.o)
                              ./src/Internet/httpServer/httpParser.o (strncpy)
c:/nxp/lpcxpresso_7.5.0_254/lpcxpresso/tools/bin/../lib/gcc/arm-none-eabi/4.8.4/../../../../arm-none-eabi/lib/armv6-m\libcr_c.a(strrchr.o)
                              ./src/Internet/FTPServer/ftpd.o (strrchr)
c:/nxp/lpcxpresso_7.5.0_254/lpcxpresso/tools/bin/../lib/gcc/arm-none-eabi/4.8.4/../../../../arm-none-eabi/lib/armv6-m\libcr_c.a(strstr.o)
                              ./src/Internet/httpServer/httpParser.o (strstr)
c:/nxp/lpcxpresso_7.5.0_254/lpcxpresso/tools/bin/../lib/gcc/arm-none-eabi/4.8.4/../../../../arm-none-eabi/lib/armv6-m\libcr_c.a(strtok.o)
                              ./src/netutil/netutil.o (strtok)
c:/nxp/lpcxpresso_7.5.0_254/lpcxpresso/tools/bin/../lib/gcc/arm-none-eabi/4.8.4/../../../../arm-none-eabi/lib/armv6-m\libcr_c.a(ungetc.o)
                              c:/nxp/lpcxpresso_7.5.0_254/lpcxpresso/tools/bin/../lib/gcc/arm-none-eabi/4.8.4/../../../../arm-none-eabi/lib/armv6-m\libcr_c.a(scanf.o) (ungetc)
c:/nxp/lpcxpresso_7.5.0_254/lpcxpresso/tools/bin/../lib/gcc/arm-none-eabi/4.8.4/../../../../arm-none-eabi/lib/armv6-m\libcr_c.a(__fillbuf.o)
                              c:/nxp/lpcxpresso_7.5.0_254/lpcxpresso/tools/bin/../lib/gcc/arm-none-eabi/4.8.4/../../../../arm-none-eabi/lib/armv6-m\libcr_c.a(scanf.o) (__filbuf)
c:/nxp/lpcxpresso_7.5.0_254/lpcxpresso/tools/bin/../lib/gcc/arm-none-eabi/4.8.4/../../../../arm-none-eabi/lib/armv6-m\libcr_c.a(__init_alloc.o)
                              c:/nxp/lpcxpresso_7.5.0_254/lpcxpresso/tools/bin/../lib/gcc/arm-none-eabi/4.8.4/../../../../arm-none-eabi/lib/armv6-m\libcr_c.a(alloc.o) (__heaps)
c:/nxp/lpcxpresso_7.5.0_254/lpcxpresso/tools/bin/../lib/gcc/arm-none-eabi/4.8.4/../../../../arm-none-eabi/lib/armv6-m\libcr_c.a(_cr_sbrk.o)
                              c:/nxp/lpcxpresso_7.5.0_254/lpcxpresso/tools/bin/../lib/gcc/arm-none-eabi/4.8.4/../../../../arm-none-eabi/lib/armv6-m\libcr_c.a(alloc.o) (_sbrk)
c:/nxp/lpcxpresso_7.5.0_254/lpcxpresso/tools/bin/../lib/gcc/arm-none-eabi/4.8.4/../../../../arm-none-eabi/lib/armv6-m\libcr_c.a(_deferredlazyseek.o)
                              c:/nxp/lpcxpresso_7.5.0_254/lpcxpresso/tools/bin/../lib/gcc/arm-none-eabi/4.8.4/../../../../arm-none-eabi/lib/armv6-m\libcr_c.a(__fillbuf.o) (_deferredlazyseek)
c:/nxp/lpcxpresso_7.5.0_254/lpcxpresso/tools/bin/../lib/gcc/arm-none-eabi/4.8.4/../../../../arm-none-eabi/lib/armv6-m\libcr_c.a(_fdopen.o)
                              c:/nxp/lpcxpresso_7.5.0_254/lpcxpresso/tools/bin/../lib/gcc/arm-none-eabi/4.8.4/../../../../arm-none-eabi/lib/armv6-m\libcr_c.a(initio.o) (_fdopen)
c:/nxp/lpcxpresso_7.5.0_254/lpcxpresso/tools/bin/../lib/gcc/arm-none-eabi/4.8.4/../../../../arm-none-eabi/lib/armv6-m\libcr_c.a(_fflush.o)
                              c:/nxp/lpcxpresso_7.5.0_254/lpcxpresso/tools/bin/../lib/gcc/arm-none-eabi/4.8.4/../../../../arm-none-eabi/lib/armv6-m\libcr_c.a(__fillbuf.o) (_fflush)
c:/nxp/lpcxpresso_7.5.0_254/lpcxpresso/tools/bin/../lib/gcc/arm-none-eabi/4.8.4/../../../../arm-none-eabi/lib/armv6-m\libcr_c.a(_frexpl.o)
                              c:/nxp/lpcxpresso_7.5.0_254/lpcxpresso/tools/bin/../lib/gcc/arm-none-eabi/4.8.4/../../../../arm-none-eabi/lib/armv6-m\libcr_c.a(fpprintf.o) (_frexpl)
c:/nxp/lpcxpresso_7.5.0_254/lpcxpresso/tools/bin/../lib/gcc/arm-none-eabi/4.8.4/../../../../arm-none-eabi/lib/armv6-m\libcr_c.a(_hugeval.o)
                              c:/nxp/lpcxpresso_7.5.0_254/lpcxpresso/tools/bin/../lib/gcc/arm-none-eabi/4.8.4/../../../../arm-none-eabi/lib/armv6-m\libcr_c.a(scanf.o) (__huge_vall)
c:/nxp/lpcxpresso_7.5.0_254/lpcxpresso/tools/bin/../lib/gcc/arm-none-eabi/4.8.4/../../../../arm-none-eabi/lib/armv6-m\libcr_c.a(_ldexpl.o)
                              c:/nxp/lpcxpresso_7.5.0_254/lpcxpresso/tools/bin/../lib/gcc/arm-none-eabi/4.8.4/../../../../arm-none-eabi/lib/armv6-m\libcr_c.a(fpprintf.o) (_ldexpl)
c:/nxp/lpcxpresso_7.5.0_254/lpcxpresso/tools/bin/../lib/gcc/arm-none-eabi/4.8.4/../../../../arm-none-eabi/lib/armv6-m\libcr_c.a(_writebuf.o)
                              c:/nxp/lpcxpresso_7.5.0_254/lpcxpresso/tools/bin/../lib/gcc/arm-none-eabi/4.8.4/../../../../arm-none-eabi/lib/armv6-m\libcr_c.a(_deferredlazyseek.o) (_Cwritebuf)
c:/nxp/lpcxpresso_7.5.0_254/lpcxpresso/tools/bin/../lib/gcc/arm-none-eabi/4.8.4/../../../../arm-none-eabi/lib/armv6-m\libcr_c.a(errno.o)
                              c:/nxp/lpcxpresso_7.5.0_254/lpcxpresso/tools/bin/../lib/gcc/arm-none-eabi/4.8.4/../../../../arm-none-eabi/lib/armv6-m\libcr_c.a(scanf.o) (errno)
c:/nxp/lpcxpresso_7.5.0_254/lpcxpresso/tools/bin/../lib/gcc/arm-none-eabi/4.8.4/../../../../arm-none-eabi/lib/armv6-m\libcr_c.a(fclose.o)
                              c:/nxp/lpcxpresso_7.5.0_254/lpcxpresso/tools/bin/../lib/gcc/arm-none-eabi/4.8.4/../../../../arm-none-eabi/lib/armv6-m\libcr_c.a(initio.o) (fclose)
c:/nxp/lpcxpresso_7.5.0_254/lpcxpresso/tools/bin/../lib/gcc/arm-none-eabi/4.8.4/../../../../arm-none-eabi/lib/armv6-m\libcr_c.a(fflush.o)
                              c:/nxp/lpcxpresso_7.5.0_254/lpcxpresso/tools/bin/../lib/gcc/arm-none-eabi/4.8.4/../../../../arm-none-eabi/lib/armv6-m\libcr_c.a(fclose.o) (fflush)
c:/nxp/lpcxpresso_7.5.0_254/lpcxpresso/tools/bin/../lib/gcc/arm-none-eabi/4.8.4/../../../../arm-none-eabi/lib/armv6-m\libcr_c.a(fseek.o)
                              c:/nxp/lpcxpresso_7.5.0_254/lpcxpresso/tools/bin/../lib/gcc/arm-none-eabi/4.8.4/../../../../arm-none-eabi/lib/armv6-m\libcr_c.a(_deferredlazyseek.o) (fseek)
c:/nxp/lpcxpresso_7.5.0_254/lpcxpresso/tools/bin/../lib/gcc/arm-none-eabi/4.8.4/../../../../arm-none-eabi/lib/armv6-m\libcr_c.a(ftell.o)
                              c:/nxp/lpcxpresso_7.5.0_254/lpcxpresso/tools/bin/../lib/gcc/arm-none-eabi/4.8.4/../../../../arm-none-eabi/lib/armv6-m\libcr_c.a(fseek.o) (ftell)
c:/nxp/lpcxpresso_7.5.0_254/lpcxpresso/tools/bin/../lib/gcc/arm-none-eabi/4.8.4/../../../../arm-none-eabi/lib/armv6-m\libcr_c.a(remove.o)
                              c:/nxp/lpcxpresso_7.5.0_254/lpcxpresso/tools/bin/../lib/gcc/arm-none-eabi/4.8.4/../../../../arm-none-eabi/lib/armv6-m\libcr_c.a(fclose.o) (remove)
c:/nxp/lpcxpresso_7.5.0_254/lpcxpresso/tools/bin/../lib/gcc/arm-none-eabi/4.8.4/../../../../arm-none-eabi/lib/armv6-m\libcr_c.a(strcspn.o)
                              c:/nxp/lpcxpresso_7.5.0_254/lpcxpresso/tools/bin/../lib/gcc/arm-none-eabi/4.8.4/../../../../arm-none-eabi/lib/armv6-m\libcr_c.a(strtok.o) (strcspn)
c:/nxp/lpcxpresso_7.5.0_254/lpcxpresso/tools/bin/../lib/gcc/arm-none-eabi/4.8.4/../../../../arm-none-eabi/lib/armv6-m\libcr_c.a(strspn.o)
                              c:/nxp/lpcxpresso_7.5.0_254/lpcxpresso/tools/bin/../lib/gcc/arm-none-eabi/4.8.4/../../../../arm-none-eabi/lib/armv6-m\libcr_c.a(strtok.o) (strspn)
c:/nxp/lpcxpresso_7.5.0_254/lpcxpresso/tools/bin/../lib/gcc/arm-none-eabi/4.8.4/../../../../arm-none-eabi/lib/armv6-m\libcr_c.a(_cr_check_heap.o)
                              c:/nxp/lpcxpresso_7.5.0_254/lpcxpresso/tools/bin/../lib/gcc/arm-none-eabi/4.8.4/../../../../arm-none-eabi/lib/armv6-m\libcr_c.a(_cr_sbrk.o) (__check_heap_overflow)
c:/nxp/lpcxpresso_7.5.0_254/lpcxpresso/tools/bin/../lib/gcc/arm-none-eabi/4.8.4/../../../../arm-none-eabi/lib/armv6-m\libcr_c.a(_do_fflush.o)
                              c:/nxp/lpcxpresso_7.5.0_254/lpcxpresso/tools/bin/../lib/gcc/arm-none-eabi/4.8.4/../../../../arm-none-eabi/lib/armv6-m\libcr_c.a(fflush.o) (_do_fflush)
c:/nxp/lpcxpresso_7.5.0_254/lpcxpresso/tools/bin/../lib/gcc/arm-none-eabi/4.8.4/armv6-m\libcr_eabihelpers.a(division_64.o)
                              ./src/Internet/SNTP/sntp.o (__aeabi_uldivmod)
c:/nxp/lpcxpresso_7.5.0_254/lpcxpresso/tools/bin/../lib/gcc/arm-none-eabi/4.8.4/armv6-m\libcr_eabihelpers.a(division_idiv0.o)
                              c:/nxp/lpcxpresso_7.5.0_254/lpcxpresso/tools/bin/../lib/gcc/arm-none-eabi/4.8.4/armv6-m\libcr_eabihelpers.a(division_64.o) (__aeabi_idiv0)
c:/nxp/lpcxpresso_7.5.0_254/lpcxpresso/tools/bin/../lib/gcc/arm-none-eabi/4.8.4/armv6-m\libcr_eabihelpers.a(double.o)
                              c:/nxp/lpcxpresso_7.5.0_254/lpcxpresso/tools/bin/../lib/gcc/arm-none-eabi/4.8.4/../../../../arm-none-eabi/lib/armv6-m\libcr_c.a(fpprintf.o) (__aeabi_dmul)
c:/nxp/lpcxpresso_7.5.0_254/lpcxpresso/tools/bin/../lib/gcc/arm-none-eabi/4.8.4/armv6-m\libcr_eabihelpers.a(llong.o)
                              c:/nxp/lpcxpresso_7.5.0_254/lpcxpresso/tools/bin/../lib/gcc/arm-none-eabi/4.8.4/../../../../arm-none-eabi/lib/armv6-m\libcr_c.a(printf.o) (__aeabi_lmul)
c:/nxp/lpcxpresso_7.5.0_254/lpcxpresso/tools/bin/../lib/gcc/arm-none-eabi/4.8.4/armv6-m\libcr_eabihelpers.a(memcpy.o)
                              c:/nxp/lpcxpresso_7.5.0_254/lpcxpresso/tools/bin/../lib/gcc/arm-none-eabi/4.8.4/../../../../arm-none-eabi/lib/armv6-m\libcr_c.a(memcpy.o) (__aeabi_memcpy)
c:/nxp/lpcxpresso_7.5.0_254/lpcxpresso/tools/bin/../lib/gcc/arm-none-eabi/4.8.4/../../../../arm-none-eabi/lib/armv6-m\libcr_nohost.a(__sys_appexit.o)
                              c:/nxp/lpcxpresso_7.5.0_254/lpcxpresso/tools/bin/../lib/gcc/arm-none-eabi/4.8.4/../../../../arm-none-eabi/lib/armv6-m\libcr_c.a(alloc.o) (__sys_appexit)
c:/nxp/lpcxpresso_7.5.0_254/lpcxpresso/tools/bin/../lib/gcc/arm-none-eabi/4.8.4/../../../../arm-none-eabi/lib/armv6-m\libcr_nohost.a(__sys_close.o)
                              c:/nxp/lpcxpresso_7.5.0_254/lpcxpresso/tools/bin/../lib/gcc/arm-none-eabi/4.8.4/../../../../arm-none-eabi/lib/armv6-m\libcr_c.a(fclose.o) (__sys_close)
c:/nxp/lpcxpresso_7.5.0_254/lpcxpresso/tools/bin/../lib/gcc/arm-none-eabi/4.8.4/../../../../arm-none-eabi/lib/armv6-m\libcr_nohost.a(__sys_flen.o)
                              c:/nxp/lpcxpresso_7.5.0_254/lpcxpresso/tools/bin/../lib/gcc/arm-none-eabi/4.8.4/../../../../arm-none-eabi/lib/armv6-m\libcr_c.a(_writebuf.o) (__sys_flen)
c:/nxp/lpcxpresso_7.5.0_254/lpcxpresso/tools/bin/../lib/gcc/arm-none-eabi/4.8.4/../../../../arm-none-eabi/lib/armv6-m\libcr_nohost.a(__sys_istty.o)
                              c:/nxp/lpcxpresso_7.5.0_254/lpcxpresso/tools/bin/../lib/gcc/arm-none-eabi/4.8.4/../../../../arm-none-eabi/lib/armv6-m\libcr_c.a(_deferredlazyseek.o) (__sys_istty)
c:/nxp/lpcxpresso_7.5.0_254/lpcxpresso/tools/bin/../lib/gcc/arm-none-eabi/4.8.4/../../../../arm-none-eabi/lib/armv6-m\libcr_nohost.a(__sys_read.o)
                              c:/nxp/lpcxpresso_7.5.0_254/lpcxpresso/tools/bin/../lib/gcc/arm-none-eabi/4.8.4/../../../../arm-none-eabi/lib/armv6-m\libcr_c.a(__fillbuf.o) (__sys_read)
c:/nxp/lpcxpresso_7.5.0_254/lpcxpresso/tools/bin/../lib/gcc/arm-none-eabi/4.8.4/../../../../arm-none-eabi/lib/armv6-m\libcr_nohost.a(__sys_remove.o)
                              c:/nxp/lpcxpresso_7.5.0_254/lpcxpresso/tools/bin/../lib/gcc/arm-none-eabi/4.8.4/../../../../arm-none-eabi/lib/armv6-m\libcr_c.a(remove.o) (__sys_remove)
c:/nxp/lpcxpresso_7.5.0_254/lpcxpresso/tools/bin/../lib/gcc/arm-none-eabi/4.8.4/../../../../arm-none-eabi/lib/armv6-m\libcr_nohost.a(__sys_rename.o)
                              c:/nxp/lpcxpresso_7.5.0_254/lpcxpresso/tools/bin/../lib/gcc/arm-none-eabi/4.8.4/../../../../arm-none-eabi/lib/armv6-m\libcr_c.a(remove.o) (__sys_rename)
c:/nxp/lpcxpresso_7.5.0_254/lpcxpresso/tools/bin/../lib/gcc/arm-none-eabi/4.8.4/../../../../arm-none-eabi/lib/armv6-m\libcr_nohost.a(__sys_seek.o)
                              c:/nxp/lpcxpresso_7.5.0_254/lpcxpresso/tools/bin/../lib/gcc/arm-none-eabi/4.8.4/../../../../arm-none-eabi/lib/armv6-m\libcr_c.a(__fillbuf.o) (__sys_seek)
c:/nxp/lpcxpresso_7.5.0_254/lpcxpresso/tools/bin/../lib/gcc/arm-none-eabi/4.8.4/../../../../arm-none-eabi/lib/armv6-m\libcr_nohost.a(__sys_tmpnam.o)
                              c:/nxp/lpcxpresso_7.5.0_254/lpcxpresso/tools/bin/../lib/gcc/arm-none-eabi/4.8.4/../../../../arm-none-eabi/lib/armv6-m\libcr_c.a(fclose.o) (__sys_tmpnam)

Allocating common symbols
Common symbol       size              file

ether_send_prev     0x4               ./src/PlatformHandler/timerHandler.o
txring              0x14              ./src/PlatformHandler/uartHandler.o
DHCP_CHADDR         0x6               ./src/Internet/DHCP/dhcp.o
mbTCPtid2           0x1               ./src/modbus/mbtcp.o
pHTTP_TX            0x4               ./src/Internet/httpServer/httpServer.o
errorIndex          0x1               ./src/Internet/SNMP/snmp.o
_extra              0x4               c:/nxp/lpcxpresso_7.5.0_254/lpcxpresso/tools/bin/../lib/gcc/arm-none-eabi/4.8.4/../../../../arm-none-eabi/lib/armv6-m\libcr_c.a(initio.o)
pHTTP_RX            0x4               ./src/Internet/httpServer/httpServer.o
usASCIIBufferPos    0x2               ./src/modbus/mbascii.o
op_mode             0x1               ./src/main.o
data_buf            0x4               ./src/Internet/SNTP/sntp.o
BUFPUB              0x100             ./src/Internet/httpServer/httpParser.o
ftpc                0xcd              ./src/Internet/FTPClient/ftpc.o
SystemCoreClock     0x4               C:\Users\boomw\Documents\lpcxpresso-workspace-wiz550s2e\lpc_chip_11exx\Release\liblpc_chip_11exx.a(chip_11xx.o)
mb_state_rtu_finish
                    0x1               ./src/modbus/mbtimer.o
ntpmessage          0x30              ./src/Internet/SNTP/sntp.o
DNS_SOCKET          0x1               ./src/Internet/DNS/dns.o
local_ip            0x4               ./src/Internet/FTPServer/ftpd.o
mbTCPtid1           0x1               ./src/modbus/mbtcp.o
ucRTUBuf            0x100             ./src/modbus/mbrtu.o
usRTUBufferPos      0x2               ./src/modbus/mbtcp.o
g_send_buf          0x400             ./src/main.o
mb_state_ascii_finish
                    0x1               ./src/modbus/mbascii.o
DHCP_XID            0x4               ./src/Internet/DHCP/dhcp.o
local_port          0x2               ./src/Internet/FTPServer/ftpd.o
pucASCIIBufferCur   0x4               ./src/modbus/mbascii.o
DHCP_SIP            0x4               ./src/Internet/DHCP/dhcp.o
eRcvState           0x1               ./src/modbus/mbtimer.o
errorStatus         0x1               ./src/Internet/SNMP/snmp.o
request_msg         0x208             ./src/Internet/SNMP/snmp.o
usTCPBufferPos      0x2               ./src/modbus/mbrtu.o
atci                0xd4              ./src/ATcmd/atcmd.o
pDivRom_uidiv       0x4               ./src/cr_startup_lpc11exx.o
rxring              0x14              ./src/PlatformHandler/uartHandler.o
dns_1s_tick         0x4               ./src/Internet/DNS/dns.o
MilliTimer          0x4               ./src/Internet/MQTT/mqtt_interface.o
ftp                 0x133             ./src/Internet/FTPServer/ftpd.o
time_zone           0x1               ./src/Internet/SNTP/sntp.o
pucTCPBufferCur     0x4               ./src/modbus/mbrtu.o
pDHCPMSG            0x4               ./src/Internet/DHCP/dhcp.o
pDNSMSG             0x4               ./src/Internet/DNS/dns.o
ether_recv_prev     0x4               ./src/PlatformHandler/timerHandler.o
Nowdatetime         0x8               ./src/Internet/SNTP/sntp.o
web_content         0xf0              ./src/Internet/httpServer/httpServer.o
remote_ip           0x4               ./src/Internet/FTPServer/ftpd.o
g_recv_buf          0x400             ./src/main.o
__heaps             0x4               c:/nxp/lpcxpresso_7.5.0_254/lpcxpresso/tools/bin/../lib/gcc/arm-none-eabi/4.8.4/../../../../arm-none-eabi/lib/armv6-m\libcr_c.a(__init_alloc.o)
pDivRom_idiv        0x4               ./src/cr_startup_lpc11exx.o
__end_of_heap       0x4               c:/nxp/lpcxpresso_7.5.0_254/lpcxpresso/tools/bin/../lib/gcc/arm-none-eabi/4.8.4/../../../../arm-none-eabi/lib/armv6-m\libcr_c.a(__init_alloc.o)
remote_port         0x2               ./src/Internet/FTPServer/ftpd.o
NTP_SOCKET          0x1               ./src/Internet/SNTP/sntp.o
NTPformat           0x38              ./src/Internet/SNTP/sntp.o
DNS_MSGID           0x2               ./src/Internet/DNS/dns.o
Command             0x2               ./src/Internet/FTPClient/ftpc.o
__Ciob              0x140             c:/nxp/lpcxpresso_7.5.0_254/lpcxpresso/tools/bin/../lib/gcc/arm-none-eabi/4.8.4/../../../../arm-none-eabi/lib/armv6-m\libcr_c.a(stdio.o)
response_msg        0x208             ./src/Internet/SNMP/snmp.o
DHCP_SOCKET         0x1               ./src/Internet/DHCP/dhcp.o
pucRTUBufferCur     0x4               ./src/modbus/mbtcp.o

Discarded input sections

 .text          0x00000000        0x0 ./src/netutil/netutil.o
 .data          0x00000000        0x0 ./src/netutil/netutil.o
 .bss           0x00000000        0x0 ./src/netutil/netutil.o
 .text.inet_ntoa
                0x00000000       0x3c ./src/netutil/netutil.o
 .text.inet_ntoa_pad
                0x00000000       0x3c ./src/netutil/netutil.o
 .text.inet_addr
                0x00000000       0x80 ./src/netutil/netutil.o
 .text.swaps    0x00000000        0x8 ./src/netutil/netutil.o
 .text.swapl    0x00000000        0x4 ./src/netutil/netutil.o
 .text.htons    0x00000000        0x8 ./src/netutil/netutil.o
 .text.htonl    0x00000000        0x4 ./src/netutil/netutil.o
 .text.ntohs    0x00000000        0x8 ./src/netutil/netutil.o
 .text.ntohl    0x00000000        0x4 ./src/netutil/netutil.o
 .bss.addr_str.4180
                0x00000000       0x10 ./src/netutil/netutil.o
 .bss.addr_str.4176
                0x00000000       0x10 ./src/netutil/netutil.o
 .rodata.str1.4
                0x00000000       0x24 ./src/netutil/netutil.o
 .debug_info    0x00000000      0x4fe ./src/netutil/netutil.o
 .debug_abbrev  0x00000000      0x15d ./src/netutil/netutil.o
 .debug_loc     0x00000000      0x2b2 ./src/netutil/netutil.o
 .debug_aranges
                0x00000000       0x60 ./src/netutil/netutil.o
 .debug_ranges  0x00000000       0x50 ./src/netutil/netutil.o
 .debug_line    0x00000000      0x1ce ./src/netutil/netutil.o
 .debug_str     0x00000000      0x28f ./src/netutil/netutil.o
 .comment       0x00000000       0x71 ./src/netutil/netutil.o
 .ARM.attributes
                0x00000000       0x31 ./src/netutil/netutil.o
 .debug_frame   0x00000000       0xc8 ./src/netutil/netutil.o
 .text          0x00000000        0x0 ./src/modbus/mb.o
 .data          0x00000000        0x0 ./src/modbus/mb.o
 .bss           0x00000000        0x0 ./src/modbus/mb.o
 .text          0x00000000        0x0 ./src/modbus/mbascii.o
 .data          0x00000000        0x0 ./src/modbus/mbascii.o
 .bss           0x00000000        0x0 ./src/modbus/mbascii.o
 .text.prvucMBCHAR2BIN
                0x00000000       0x20 ./src/modbus/mbascii.o
 .text          0x00000000        0x0 ./src/modbus/mbcrc.o
 .data          0x00000000        0x0 ./src/modbus/mbcrc.o
 .bss           0x00000000        0x0 ./src/modbus/mbcrc.o
 .text          0x00000000        0x0 ./src/modbus/mbrtu.o
 .data          0x00000000        0x0 ./src/modbus/mbrtu.o
 .bss           0x00000000        0x0 ./src/modbus/mbrtu.o
 .text          0x00000000        0x0 ./src/modbus/mbtcp.o
 .data          0x00000000        0x0 ./src/modbus/mbtcp.o
 .bss           0x00000000        0x0 ./src/modbus/mbtcp.o
 .text          0x00000000        0x0 ./src/modbus/mbtimer.o
 .data          0x00000000        0x0 ./src/modbus/mbtimer.o
 .bss           0x00000000        0x0 ./src/modbus/mbtimer.o
 .text.vMBPortTimersDisable
                0x00000000       0x20 ./src/modbus/mbtimer.o
 .text          0x00000000        0x0 ./src/callback/dhcp_cb.o
 .data          0x00000000        0x0 ./src/callback/dhcp_cb.o
 .bss           0x00000000        0x0 ./src/callback/dhcp_cb.o
 .text          0x00000000        0x0 ./src/S2E/S2E.o
 .data          0x00000000        0x0 ./src/S2E/S2E.o
 .bss           0x00000000        0x0 ./src/S2E/S2E.o
 .text          0x00000000        0x0 ./src/PlatformHandler/eepromHandler.o
 .data          0x00000000        0x0 ./src/PlatformHandler/eepromHandler.o
 .bss           0x00000000        0x0 ./src/PlatformHandler/eepromHandler.o
 .text          0x00000000        0x0 ./src/PlatformHandler/sspHandler.o
 .data          0x00000000        0x0 ./src/PlatformHandler/sspHandler.o
 .bss           0x00000000        0x0 ./src/PlatformHandler/sspHandler.o
 .text          0x00000000        0x0 ./src/PlatformHandler/timerHandler.o
 .data          0x00000000        0x0 ./src/PlatformHandler/timerHandler.o
 .bss           0x00000000        0x0 ./src/PlatformHandler/timerHandler.o
 .text          0x00000000        0x0 ./src/PlatformHandler/uartHandler.o
 .data          0x00000000        0x0 ./src/PlatformHandler/uartHandler.o
 .bss           0x00000000        0x0 ./src/PlatformHandler/uartHandler.o
 .text          0x00000000        0x0 ./src/Internet/httpServer/httpParser.o
 .data          0x00000000        0x0 ./src/Internet/httpServer/httpParser.o
 .bss           0x00000000        0x0 ./src/Internet/httpServer/httpParser.o
 .text.unescape_http_url
                0x00000000       0x94 ./src/Internet/httpServer/httpParser.o
 .text.make_http_response_head
                0x00000000      0x100 ./src/Internet/httpServer/httpParser.o
 .text.find_http_uri_type
                0x00000000      0x28c ./src/Internet/httpServer/httpParser.o
 .text.parse_http_request
                0x00000000       0xb4 ./src/Internet/httpServer/httpParser.o
 .text.get_http_param_value
                0x00000000      0x15c ./src/Internet/httpServer/httpParser.o
 .text.get_http_uri_name
                0x00000000       0x40 ./src/Internet/httpServer/httpParser.o
 .text.inet_addr_
                0x00000000       0xf8 ./src/Internet/httpServer/httpParser.o
 .text.ATOI     0x00000000       0x58 ./src/Internet/httpServer/httpParser.o
 .text.mid      0x00000000       0x34 ./src/Internet/httpServer/httpParser.o
 .rodata        0x00000000        0x4 ./src/Internet/httpServer/httpParser.o
 .rodata.str1.4
                0x00000000      0x5fc ./src/Internet/httpServer/httpParser.o
 .debug_info    0x00000000     0x1005 ./src/Internet/httpServer/httpParser.o
 .debug_abbrev  0x00000000      0x343 ./src/Internet/httpServer/httpParser.o
 .debug_loc     0x00000000      0xca2 ./src/Internet/httpServer/httpParser.o
 .debug_aranges
                0x00000000       0x60 ./src/Internet/httpServer/httpParser.o
 .debug_ranges  0x00000000      0x170 ./src/Internet/httpServer/httpParser.o
 .debug_line    0x00000000      0x3c4 ./src/Internet/httpServer/httpParser.o
 .debug_str     0x00000000      0x384 ./src/Internet/httpServer/httpParser.o
 .comment       0x00000000       0x71 ./src/Internet/httpServer/httpParser.o
 .ARM.attributes
                0x00000000       0x31 ./src/Internet/httpServer/httpParser.o
 .debug_frame   0x00000000      0x124 ./src/Internet/httpServer/httpParser.o
 COMMON         0x00000000      0x100 ./src/Internet/httpServer/httpParser.o
 .text          0x00000000        0x0 ./src/Internet/httpServer/httpServer.o
 .data          0x00000000        0x0 ./src/Internet/httpServer/httpServer.o
 .bss           0x00000000        0x0 ./src/Internet/httpServer/httpServer.o
 .text.default_mcu_reset
                0x00000000        0x4 ./src/Internet/httpServer/httpServer.o
 .text.default_wdt_reset
                0x00000000        0x4 ./src/Internet/httpServer/httpServer.o
 .text.send_http_response_body
                0x00000000      0x200 ./src/Internet/httpServer/httpServer.o
 .text.http_process_handler
                0x00000000      0x458 ./src/Internet/httpServer/httpServer.o
 .text.httpServer_Sockinit
                0x00000000       0x48 ./src/Internet/httpServer/httpServer.o
 .text.httpServer_init
                0x00000000       0x5c ./src/Internet/httpServer/httpServer.o
 .text.reg_httpServer_cbfunc
                0x00000000       0x1c ./src/Internet/httpServer/httpServer.o
 .text.httpServer_run
                0x00000000      0x270 ./src/Internet/httpServer/httpServer.o
 .text.httpServer_time_handler
                0x00000000       0x10 ./src/Internet/httpServer/httpServer.o
 .text.get_httpServer_timecount
                0x00000000        0xc ./src/Internet/httpServer/httpServer.o
 .text.reg_httpServer_webContent
                0x00000000       0x7c ./src/Internet/httpServer/httpServer.o
 .text.display_reg_webContent_list
                0x00000000       0xc4 ./src/Internet/httpServer/httpServer.o
 .text.find_userReg_webContent
                0x00000000       0x60 ./src/Internet/httpServer/httpServer.o
 .text.read_userReg_webContent
                0x00000000       0x44 ./src/Internet/httpServer/httpServer.o
 .bss.http_request
                0x00000000        0x4 ./src/Internet/httpServer/httpServer.o
 .bss.httpServer_tick_1s
                0x00000000        0x4 ./src/Internet/httpServer/httpServer.o
 .bss.http_response
                0x00000000        0x4 ./src/Internet/httpServer/httpServer.o
 .rodata.ERROR_REQUEST_PAGE
                0x00000000       0x78 ./src/Internet/httpServer/httpServer.o
 .bss.parsed_http_request
                0x00000000        0x4 ./src/Internet/httpServer/httpServer.o
 .bss.HTTPSock_Num
                0x00000000        0x8 ./src/Internet/httpServer/httpServer.o
 .rodata.ERROR_HTML_PAGE
                0x00000000       0x9c ./src/Internet/httpServer/httpServer.o
 .rodata.str1.4
                0x00000000      0x7d0 ./src/Internet/httpServer/httpServer.o
 .bss.HTTPSock_Status
                0x00000000      0x4a0 ./src/Internet/httpServer/httpServer.o
 .bss.total_content_cnt
                0x00000000        0x2 ./src/Internet/httpServer/httpServer.o
 .data.HTTPServer_WDT_Reset
                0x00000000        0x4 ./src/Internet/httpServer/httpServer.o
 .data.HTTPServer_ReStart
                0x00000000        0x4 ./src/Internet/httpServer/httpServer.o
 .debug_info    0x00000000     0x19f8 ./src/Internet/httpServer/httpServer.o
 .debug_abbrev  0x00000000      0x48a ./src/Internet/httpServer/httpServer.o
 .debug_loc     0x00000000     0x10bf ./src/Internet/httpServer/httpServer.o
 .debug_aranges
                0x00000000       0x88 ./src/Internet/httpServer/httpServer.o
 .debug_ranges  0x00000000      0x160 ./src/Internet/httpServer/httpServer.o
 .debug_line    0x00000000      0x583 ./src/Internet/httpServer/httpServer.o
 .debug_str     0x00000000      0x780 ./src/Internet/httpServer/httpServer.o
 .comment       0x00000000       0x71 ./src/Internet/httpServer/httpServer.o
 .ARM.attributes
                0x00000000       0x31 ./src/Internet/httpServer/httpServer.o
 .debug_frame   0x00000000      0x1a4 ./src/Internet/httpServer/httpServer.o
 COMMON         0x00000000       0xf8 ./src/Internet/httpServer/httpServer.o
 .text          0x00000000        0x0 ./src/Internet/httpServer/httpUtil.o
 .data          0x00000000        0x0 ./src/Internet/httpServer/httpUtil.o
 .bss           0x00000000        0x0 ./src/Internet/httpServer/httpUtil.o
 .text.http_get_cgi_handler
                0x00000000       0x38 ./src/Internet/httpServer/httpUtil.o
 .text.http_post_cgi_handler
                0x00000000       0x50 ./src/Internet/httpServer/httpUtil.o
 .rodata.str1.4
                0x00000000       0x10 ./src/Internet/httpServer/httpUtil.o
 .debug_info    0x00000000      0x34f ./src/Internet/httpServer/httpUtil.o
 .debug_abbrev  0x00000000      0x148 ./src/Internet/httpServer/httpUtil.o
 .debug_loc     0x00000000      0x18e ./src/Internet/httpServer/httpUtil.o
 .debug_aranges
                0x00000000       0x28 ./src/Internet/httpServer/httpUtil.o
 .debug_ranges  0x00000000       0x18 ./src/Internet/httpServer/httpUtil.o
 .debug_line    0x00000000      0x101 ./src/Internet/httpServer/httpUtil.o
 .debug_str     0x00000000      0x2b8 ./src/Internet/httpServer/httpUtil.o
 .comment       0x00000000       0x71 ./src/Internet/httpServer/httpUtil.o
 .ARM.attributes
                0x00000000       0x31 ./src/Internet/httpServer/httpUtil.o
 .debug_frame   0x00000000       0x4c ./src/Internet/httpServer/httpUtil.o
 .text          0x00000000        0x0 ./src/Internet/TFTP/netutil.o
 .data          0x00000000        0x0 ./src/Internet/TFTP/netutil.o
 .bss           0x00000000        0x0 ./src/Internet/TFTP/netutil.o
 .text.inet_ntoa
                0x00000000       0x3c ./src/Internet/TFTP/netutil.o
 .text.inet_ntoa_pad
                0x00000000       0x3c ./src/Internet/TFTP/netutil.o
 .text.inet_addr
                0x00000000       0x80 ./src/Internet/TFTP/netutil.o
 .text.swaps    0x00000000        0x8 ./src/Internet/TFTP/netutil.o
 .text.swapl    0x00000000        0x4 ./src/Internet/TFTP/netutil.o
 .text.htons    0x00000000        0x8 ./src/Internet/TFTP/netutil.o
 .text.htonl    0x00000000        0x4 ./src/Internet/TFTP/netutil.o
 .text.ntohs    0x00000000        0x8 ./src/Internet/TFTP/netutil.o
 .text.ntohl    0x00000000        0x4 ./src/Internet/TFTP/netutil.o
 .bss.addr_str.4180
                0x00000000       0x10 ./src/Internet/TFTP/netutil.o
 .bss.addr_str.4176
                0x00000000       0x10 ./src/Internet/TFTP/netutil.o
 .rodata.str1.4
                0x00000000       0x24 ./src/Internet/TFTP/netutil.o
 .debug_info    0x00000000      0x4fe ./src/Internet/TFTP/netutil.o
 .debug_abbrev  0x00000000      0x15d ./src/Internet/TFTP/netutil.o
 .debug_loc     0x00000000      0x2b2 ./src/Internet/TFTP/netutil.o
 .debug_aranges
                0x00000000       0x60 ./src/Internet/TFTP/netutil.o
 .debug_ranges  0x00000000       0x50 ./src/Internet/TFTP/netutil.o
 .debug_line    0x00000000      0x1d4 ./src/Internet/TFTP/netutil.o
 .debug_str     0x00000000      0x295 ./src/Internet/TFTP/netutil.o
 .comment       0x00000000       0x71 ./src/Internet/TFTP/netutil.o
 .ARM.attributes
                0x00000000       0x31 ./src/Internet/TFTP/netutil.o
 .debug_frame   0x00000000       0xc8 ./src/Internet/TFTP/netutil.o
 .text          0x00000000        0x0 ./src/Internet/TFTP/tftp.o
 .data          0x00000000        0x0 ./src/Internet/TFTP/tftp.o
 .bss           0x00000000        0x0 ./src/Internet/TFTP/tftp.o
 .text.send_tftp_rrq.constprop.8
                0x00000000      0x110 ./src/Internet/TFTP/tftp.o
 .text.TFTP_init
                0x00000000       0x9c ./src/Internet/TFTP/tftp.o
 .text.TFTP_exit
                0x00000000       0x74 ./src/Internet/TFTP/tftp.o
 .text.TFTP_run
                0x00000000      0x5cc ./src/Internet/TFTP/tftp.o
 .text.TFTP_read_request
                0x00000000       0x3c ./src/Internet/TFTP/tftp.o
 .text.tftp_timeout_handler
                0x00000000       0x1c ./src/Internet/TFTP/tftp.o
 .rodata.__func__.4412
                0x00000000       0x14 ./src/Internet/TFTP/tftp.o
 .bss.g_server_ip
                0x00000000        0x4 ./src/Internet/TFTP/tftp.o
 .bss.g_filename
                0x00000000       0x14 ./src/Internet/TFTP/tftp.o
 .bss.g_tftp_rcv_buf
                0x00000000        0x4 ./src/Internet/TFTP/tftp.o
 .rodata.__func__.4374
                0x00000000       0x14 ./src/Internet/TFTP/tftp.o
 .bss.g_server_port
                0x00000000        0x2 ./src/Internet/TFTP/tftp.o
 .data.default_tftp_opt
                0x00000000        0x8 ./src/Internet/TFTP/tftp.o
 .bss.g_block_num
                0x00000000        0x2 ./src/Internet/TFTP/tftp.o
 .rodata.str1.4
                0x00000000      0x160 ./src/Internet/TFTP/tftp.o
 .bss.g_progress_state
                0x00000000        0x1 ./src/Internet/TFTP/tftp.o
 .bss.tftp_time_cnt
                0x00000000        0x4 ./src/Internet/TFTP/tftp.o
 .data.g_tftp_socket
                0x00000000        0x4 ./src/Internet/TFTP/tftp.o
 .bss.g_local_port
                0x00000000        0x2 ./src/Internet/TFTP/tftp.o
 .bss.g_tftp_state
                0x00000000        0x4 ./src/Internet/TFTP/tftp.o
 .bss.tftp_retry_cnt
                0x00000000        0x4 ./src/Internet/TFTP/tftp.o
 .data.dbg_level
                0x00000000        0x4 ./src/Internet/TFTP/tftp.o
 .bss.g_resend_flag
                0x00000000        0x4 ./src/Internet/TFTP/tftp.o
 .rodata.__func__.4365
                0x00000000       0x10 ./src/Internet/TFTP/tftp.o
 .debug_info    0x00000000     0x1b33 ./src/Internet/TFTP/tftp.o
 .debug_abbrev  0x00000000      0x3f3 ./src/Internet/TFTP/tftp.o
 .debug_loc     0x00000000      0xddf ./src/Internet/TFTP/tftp.o
 .debug_aranges
                0x00000000       0x48 ./src/Internet/TFTP/tftp.o
 .debug_ranges  0x00000000      0x660 ./src/Internet/TFTP/tftp.o
 .debug_line    0x00000000      0x555 ./src/Internet/TFTP/tftp.o
 .debug_str     0x00000000      0x6a6 ./src/Internet/TFTP/tftp.o
 .comment       0x00000000       0x71 ./src/Internet/TFTP/tftp.o
 .ARM.attributes
                0x00000000       0x31 ./src/Internet/TFTP/tftp.o
 .debug_frame   0x00000000       0xc4 ./src/Internet/TFTP/tftp.o
 .text          0x00000000        0x0 ./src/Internet/SNTP/sntp.o
 .data          0x00000000        0x0 ./src/Internet/SNTP/sntp.o
 .bss           0x00000000        0x0 ./src/Internet/SNTP/sntp.o
 .text.SNTP_init
                0x00000000       0x7c ./src/Internet/SNTP/sntp.o
 .text.calcdatetime
                0x00000000      0x610 ./src/Internet/SNTP/sntp.o
 .text.get_seconds_from_ntp_server
                0x00000000      0x2f0 ./src/Internet/SNTP/sntp.o
 .rodata.get_seconds_from_ntp_server
                0x00000000       0xc8 ./src/Internet/SNTP/sntp.o
 .text.SNTP_run
                0x00000000       0xf8 ./src/Internet/SNTP/sntp.o
 .text.changedatetime_to_seconds
                0x00000000      0x394 ./src/Internet/SNTP/sntp.o
 .bss.ntp_retry_cnt
                0x00000000        0x2 ./src/Internet/SNTP/sntp.o
 .debug_info    0x00000000      0x681 ./src/Internet/SNTP/sntp.o
 .debug_abbrev  0x00000000      0x211 ./src/Internet/SNTP/sntp.o
 .debug_loc     0x00000000      0xa7b ./src/Internet/SNTP/sntp.o
 .debug_aranges
                0x00000000       0x40 ./src/Internet/SNTP/sntp.o
 .debug_ranges  0x00000000       0x30 ./src/Internet/SNTP/sntp.o
 .debug_line    0x00000000      0x4df ./src/Internet/SNTP/sntp.o
 .debug_str     0x00000000      0x3bd ./src/Internet/SNTP/sntp.o
 .comment       0x00000000       0x71 ./src/Internet/SNTP/sntp.o
 .ARM.attributes
                0x00000000       0x31 ./src/Internet/SNTP/sntp.o
 .debug_frame   0x00000000       0xb8 ./src/Internet/SNTP/sntp.o
 COMMON         0x00000000       0x80 ./src/Internet/SNTP/sntp.o
 .text          0x00000000        0x0 ./src/Internet/SNMP/snmp.o
 .data          0x00000000        0x0 ./src/Internet/SNMP/snmp.o
 .bss           0x00000000        0x0 ./src/Internet/SNMP/snmp.o
 .text.currentUptime
                0x00000000       0x1c ./src/Internet/SNMP/snmp.o
 .text.SNMP_time_handler
                0x00000000       0x10 ./src/Internet/SNMP/snmp.o
 .text.getSNMPTimeTick
                0x00000000        0xc ./src/Internet/SNMP/snmp.o
 .text.snmpd_init
                0x00000000       0x4c ./src/Internet/SNMP/snmp.o
 .text.findEntry
                0x00000000       0x4c ./src/Internet/SNMP/snmp.o
 .text.getOID   0x00000000       0xac ./src/Internet/SNMP/snmp.o
 .text.getValue
                0x00000000       0x30 ./src/Internet/SNMP/snmp.o
 .text.getEntry
                0x00000000      0x108 ./src/Internet/SNMP/snmp.o
 .text.setEntry
                0x00000000      0x1a8 ./src/Internet/SNMP/snmp.o
 .text.parseLength
                0x00000000       0x3c ./src/Internet/SNMP/snmp.o
 .text.parseTLV
                0x00000000       0x64 ./src/Internet/SNMP/snmp.o
 .text.insertRespLen
                0x00000000       0x4c ./src/Internet/SNMP/snmp.o
 .text.parseVarBind
                0x00000000      0x548 ./src/Internet/SNMP/snmp.o
 .text.parseSequence
                0x00000000       0xc8 ./src/Internet/SNMP/snmp.o
 .text.parseSequenceOf
                0x00000000      0x1bc ./src/Internet/SNMP/snmp.o
 .text.parseRequest
                0x00000000      0x284 ./src/Internet/SNMP/snmp.o
 .text.parseCommunity
                0x00000000       0xdc ./src/Internet/SNMP/snmp.o
 .text.parseVersion
                0x00000000       0x9c ./src/Internet/SNMP/snmp.o
 .text.parseSNMPMessage
                0x00000000      0x130 ./src/Internet/SNMP/snmp.o
 .text.ipToByteArray
                0x00000000       0x70 ./src/Internet/SNMP/snmp.o
 .text.makeTrapVariableBindings
                0x00000000      0x118 ./src/Internet/SNMP/snmp.o
 .text.snmp_sendTrap
                0x00000000      0x434 ./src/Internet/SNMP/snmp.o
 .text.dumpCode
                0x00000000      0x13c ./src/Internet/SNMP/snmp.o
 .text.snmpd_run
                0x00000000      0x108 ./src/Internet/SNMP/snmp.o
 .rodata        0x00000000        0x8 ./src/Internet/SNMP/snmp.o
 .bss.packet_trap
                0x00000000      0x200 ./src/Internet/SNMP/snmp.o
 .bss.snmp_tick_10ms
                0x00000000        0x4 ./src/Internet/SNMP/snmp.o
 .bss.SOCK_SNMP_TRAP
                0x00000000        0x1 ./src/Internet/SNMP/snmp.o
 .rodata.str1.4
                0x00000000       0xac ./src/Internet/SNMP/snmp.o
 .bss.SOCK_SNMP_AGENT
                0x00000000        0x1 ./src/Internet/SNMP/snmp.o
 .bss.startTime
                0x00000000        0x4 ./src/Internet/SNMP/snmp.o
 .debug_info    0x00000000     0x226f ./src/Internet/SNMP/snmp.o
 .debug_abbrev  0x00000000      0x4d7 ./src/Internet/SNMP/snmp.o
 .debug_loc     0x00000000     0x5697 ./src/Internet/SNMP/snmp.o
 .debug_aranges
                0x00000000       0xd8 ./src/Internet/SNMP/snmp.o
 .debug_ranges  0x00000000      0x8f0 ./src/Internet/SNMP/snmp.o
 .debug_line    0x00000000      0xbb3 ./src/Internet/SNMP/snmp.o
 .debug_str     0x00000000      0x668 ./src/Internet/SNMP/snmp.o
 .comment       0x00000000       0x71 ./src/Internet/SNMP/snmp.o
 .ARM.attributes
                0x00000000       0x31 ./src/Internet/SNMP/snmp.o
 .debug_frame   0x00000000      0x344 ./src/Internet/SNMP/snmp.o
 COMMON         0x00000000      0x414 ./src/Internet/SNMP/snmp.o
 .text          0x00000000        0x0 ./src/Internet/SNMP/snmp_custom.o
 .data          0x00000000        0x0 ./src/Internet/SNMP/snmp_custom.o
 .bss           0x00000000        0x0 ./src/Internet/SNMP/snmp_custom.o
 .text.initTable
                0x00000000       0x14 ./src/Internet/SNMP/snmp_custom.o
 .text.initial_Trap
                0x00000000       0x84 ./src/Internet/SNMP/snmp_custom.o
 .rodata        0x00000000       0x48 ./src/Internet/SNMP/snmp_custom.o
 .data.snmpData
                0x00000000      0x370 ./src/Internet/SNMP/snmp_custom.o
 .rodata.maxData
                0x00000000        0x4 ./src/Internet/SNMP/snmp_custom.o
 .debug_info    0x00000000      0x302 ./src/Internet/SNMP/snmp_custom.o
 .debug_abbrev  0x00000000      0x171 ./src/Internet/SNMP/snmp_custom.o
 .debug_loc     0x00000000       0x58 ./src/Internet/SNMP/snmp_custom.o
 .debug_aranges
                0x00000000       0x28 ./src/Internet/SNMP/snmp_custom.o
 .debug_ranges  0x00000000       0x30 ./src/Internet/SNMP/snmp_custom.o
 .debug_line    0x00000000       0xbe ./src/Internet/SNMP/snmp_custom.o
 .debug_str     0x00000000      0x287 ./src/Internet/SNMP/snmp_custom.o
 .comment       0x00000000       0x71 ./src/Internet/SNMP/snmp_custom.o
 .ARM.attributes
                0x00000000       0x31 ./src/Internet/SNMP/snmp_custom.o
 .debug_frame   0x00000000       0x44 ./src/Internet/SNMP/snmp_custom.o
 .text          0x00000000        0x0 ./src/Internet/MQTT/MQTTPacket/src/MQTTConnectClient.o
 .data          0x00000000        0x0 ./src/Internet/MQTT/MQTTPacket/src/MQTTConnectClient.o
 .bss           0x00000000        0x0 ./src/Internet/MQTT/MQTTPacket/src/MQTTConnectClient.o
 .text.MQTTSerialize_connectLength
                0x00000000       0x84 ./src/Internet/MQTT/MQTTPacket/src/MQTTConnectClient.o
 .text.MQTTSerialize_connect
                0x00000000      0x134 ./src/Internet/MQTT/MQTTPacket/src/MQTTConnectClient.o
 .text.MQTTDeserialize_connack
                0x00000000       0x4c ./src/Internet/MQTT/MQTTPacket/src/MQTTConnectClient.o
 .text.MQTTSerialize_zero
                0x00000000       0x30 ./src/Internet/MQTT/MQTTPacket/src/MQTTConnectClient.o
 .text.MQTTSerialize_disconnect
                0x00000000       0x2c ./src/Internet/MQTT/MQTTPacket/src/MQTTConnectClient.o
 .text.MQTTSerialize_pingreq
                0x00000000       0x2c ./src/Internet/MQTT/MQTTPacket/src/MQTTConnectClient.o
 .rodata.str1.4
                0x00000000       0x10 ./src/Internet/MQTT/MQTTPacket/src/MQTTConnectClient.o
 .debug_info    0x00000000      0x9e9 ./src/Internet/MQTT/MQTTPacket/src/MQTTConnectClient.o
 .debug_abbrev  0x00000000      0x275 ./src/Internet/MQTT/MQTTPacket/src/MQTTConnectClient.o
 .debug_loc     0x00000000      0x5b5 ./src/Internet/MQTT/MQTTPacket/src/MQTTConnectClient.o
 .debug_aranges
                0x00000000       0x48 ./src/Internet/MQTT/MQTTPacket/src/MQTTConnectClient.o
 .debug_ranges  0x00000000       0x68 ./src/Internet/MQTT/MQTTPacket/src/MQTTConnectClient.o
 .debug_line    0x00000000      0x181 ./src/Internet/MQTT/MQTTPacket/src/MQTTConnectClient.o
 .debug_str     0x00000000      0x50f ./src/Internet/MQTT/MQTTPacket/src/MQTTConnectClient.o
 .comment       0x00000000       0x71 ./src/Internet/MQTT/MQTTPacket/src/MQTTConnectClient.o
 .ARM.attributes
                0x00000000       0x31 ./src/Internet/MQTT/MQTTPacket/src/MQTTConnectClient.o
 .debug_frame   0x00000000       0xc0 ./src/Internet/MQTT/MQTTPacket/src/MQTTConnectClient.o
 .text          0x00000000        0x0 ./src/Internet/MQTT/MQTTPacket/src/MQTTConnectServer.o
 .data          0x00000000        0x0 ./src/Internet/MQTT/MQTTPacket/src/MQTTConnectServer.o
 .bss           0x00000000        0x0 ./src/Internet/MQTT/MQTTPacket/src/MQTTConnectServer.o
 .text.MQTTPacket_checkVersion
                0x00000000       0x48 ./src/Internet/MQTT/MQTTPacket/src/MQTTConnectServer.o
 .text.MQTTDeserialize_connect
                0x00000000      0x138 ./src/Internet/MQTT/MQTTPacket/src/MQTTConnectServer.o
 .text.MQTTSerialize_connack
                0x00000000       0x4c ./src/Internet/MQTT/MQTTPacket/src/MQTTConnectServer.o
 .rodata.str1.4
                0x00000000       0x10 ./src/Internet/MQTT/MQTTPacket/src/MQTTConnectServer.o
 .debug_info    0x00000000      0x822 ./src/Internet/MQTT/MQTTPacket/src/MQTTConnectServer.o
 .debug_abbrev  0x00000000      0x255 ./src/Internet/MQTT/MQTTPacket/src/MQTTConnectServer.o
 .debug_loc     0x00000000      0x3e2 ./src/Internet/MQTT/MQTTPacket/src/MQTTConnectServer.o
 .debug_aranges
                0x00000000       0x30 ./src/Internet/MQTT/MQTTPacket/src/MQTTConnectServer.o
 .debug_ranges  0x00000000       0x38 ./src/Internet/MQTT/MQTTPacket/src/MQTTConnectServer.o
 .debug_line    0x00000000      0x1fe ./src/Internet/MQTT/MQTTPacket/src/MQTTConnectServer.o
 .debug_str     0x00000000      0x4b8 ./src/Internet/MQTT/MQTTPacket/src/MQTTConnectServer.o
 .comment       0x00000000       0x71 ./src/Internet/MQTT/MQTTPacket/src/MQTTConnectServer.o
 .ARM.attributes
                0x00000000       0x31 ./src/Internet/MQTT/MQTTPacket/src/MQTTConnectServer.o
 .debug_frame   0x00000000       0x68 ./src/Internet/MQTT/MQTTPacket/src/MQTTConnectServer.o
 .text          0x00000000        0x0 ./src/Internet/MQTT/MQTTPacket/src/MQTTDeserializePublish.o
 .data          0x00000000        0x0 ./src/Internet/MQTT/MQTTPacket/src/MQTTDeserializePublish.o
 .bss           0x00000000        0x0 ./src/Internet/MQTT/MQTTPacket/src/MQTTDeserializePublish.o
 .text.MQTTDeserialize_publish
                0x00000000       0x98 ./src/Internet/MQTT/MQTTPacket/src/MQTTDeserializePublish.o
 .text.MQTTDeserialize_ack
                0x00000000       0x40 ./src/Internet/MQTT/MQTTPacket/src/MQTTDeserializePublish.o
 .debug_info    0x00000000      0x44b ./src/Internet/MQTT/MQTTPacket/src/MQTTDeserializePublish.o
 .debug_abbrev  0x00000000      0x1b9 ./src/Internet/MQTT/MQTTPacket/src/MQTTDeserializePublish.o
 .debug_loc     0x00000000      0x25e ./src/Internet/MQTT/MQTTPacket/src/MQTTDeserializePublish.o
 .debug_aranges
                0x00000000       0x28 ./src/Internet/MQTT/MQTTPacket/src/MQTTDeserializePublish.o
 .debug_ranges  0x00000000       0x18 ./src/Internet/MQTT/MQTTPacket/src/MQTTDeserializePublish.o
 .debug_line    0x00000000       0xca ./src/Internet/MQTT/MQTTPacket/src/MQTTDeserializePublish.o
 .debug_str     0x00000000      0x32d ./src/Internet/MQTT/MQTTPacket/src/MQTTDeserializePublish.o
 .comment       0x00000000       0x71 ./src/Internet/MQTT/MQTTPacket/src/MQTTDeserializePublish.o
 .ARM.attributes
                0x00000000       0x31 ./src/Internet/MQTT/MQTTPacket/src/MQTTDeserializePublish.o
 .debug_frame   0x00000000       0x5c ./src/Internet/MQTT/MQTTPacket/src/MQTTDeserializePublish.o
 .text          0x00000000        0x0 ./src/Internet/MQTT/MQTTPacket/src/MQTTFormat.o
 .data          0x00000000        0x0 ./src/Internet/MQTT/MQTTPacket/src/MQTTFormat.o
 .bss           0x00000000        0x0 ./src/Internet/MQTT/MQTTPacket/src/MQTTFormat.o
 .text.MQTTPacket_getName
                0x00000000        0xc ./src/Internet/MQTT/MQTTPacket/src/MQTTFormat.o
 .text.MQTTStringFormat_connect
                0x00000000       0x9c ./src/Internet/MQTT/MQTTPacket/src/MQTTFormat.o
 .text.MQTTStringFormat_connack
                0x00000000       0x14 ./src/Internet/MQTT/MQTTPacket/src/MQTTFormat.o
 .text.MQTTStringFormat_publish
                0x00000000       0x44 ./src/Internet/MQTT/MQTTPacket/src/MQTTFormat.o
 .text.MQTTStringFormat_ack
                0x00000000       0x44 ./src/Internet/MQTT/MQTTPacket/src/MQTTFormat.o
 .text.MQTTStringFormat_subscribe
                0x00000000       0x2c ./src/Internet/MQTT/MQTTPacket/src/MQTTFormat.o
 .text.MQTTStringFormat_suback
                0x00000000       0x20 ./src/Internet/MQTT/MQTTPacket/src/MQTTFormat.o
 .text.MQTTStringFormat_unsubscribe
                0x00000000       0x28 ./src/Internet/MQTT/MQTTPacket/src/MQTTFormat.o
 .text.MQTTFormat_toClientString
                0x00000000      0x18c ./src/Internet/MQTT/MQTTPacket/src/MQTTFormat.o
 .rodata.MQTTFormat_toClientString
                0x00000000       0x3c ./src/Internet/MQTT/MQTTPacket/src/MQTTFormat.o
 .text.MQTTFormat_toServerString
                0x00000000      0x1bc ./src/Internet/MQTT/MQTTPacket/src/MQTTFormat.o
 .rodata.MQTTFormat_toServerString
                0x00000000       0x3c ./src/Internet/MQTT/MQTTPacket/src/MQTTFormat.o
 .data.MQTTPacket_names
                0x00000000       0x3c ./src/Internet/MQTT/MQTTPacket/src/MQTTFormat.o
 .rodata.str1.4
                0x00000000      0x28c ./src/Internet/MQTT/MQTTPacket/src/MQTTFormat.o
 .debug_info    0x00000000     0x1589 ./src/Internet/MQTT/MQTTPacket/src/MQTTFormat.o
 .debug_abbrev  0x00000000      0x28d ./src/Internet/MQTT/MQTTPacket/src/MQTTFormat.o
 .debug_loc     0x00000000      0xdd9 ./src/Internet/MQTT/MQTTPacket/src/MQTTFormat.o
 .debug_aranges
                0x00000000       0x68 ./src/Internet/MQTT/MQTTPacket/src/MQTTFormat.o
 .debug_ranges  0x00000000       0xc0 ./src/Internet/MQTT/MQTTPacket/src/MQTTFormat.o
 .debug_line    0x00000000      0x2e7 ./src/Internet/MQTT/MQTTPacket/src/MQTTFormat.o
 .debug_str     0x00000000      0x5af ./src/Internet/MQTT/MQTTPacket/src/MQTTFormat.o
 .comment       0x00000000       0x71 ./src/Internet/MQTT/MQTTPacket/src/MQTTFormat.o
 .ARM.attributes
                0x00000000       0x31 ./src/Internet/MQTT/MQTTPacket/src/MQTTFormat.o
 .debug_frame   0x00000000      0x13c ./src/Internet/MQTT/MQTTPacket/src/MQTTFormat.o
 .text          0x00000000        0x0 ./src/Internet/MQTT/MQTTPacket/src/MQTTPacket.o
 .data          0x00000000        0x0 ./src/Internet/MQTT/MQTTPacket/src/MQTTPacket.o
 .bss           0x00000000        0x0 ./src/Internet/MQTT/MQTTPacket/src/MQTTPacket.o
 .text.bufchar  0x00000000       0x20 ./src/Internet/MQTT/MQTTPacket/src/MQTTPacket.o
 .text.MQTTPacket_encode
                0x00000000       0x44 ./src/Internet/MQTT/MQTTPacket/src/MQTTPacket.o
 .text.MQTTPacket_decode
                0x00000000       0x4c ./src/Internet/MQTT/MQTTPacket/src/MQTTPacket.o
 .text.MQTTPacket_len
                0x00000000       0x28 ./src/Internet/MQTT/MQTTPacket/src/MQTTPacket.o
 .text.MQTTPacket_decodeBuf
                0x00000000       0x7c ./src/Internet/MQTT/MQTTPacket/src/MQTTPacket.o
 .text.readInt  0x00000000       0x14 ./src/Internet/MQTT/MQTTPacket/src/MQTTPacket.o
 .text.readChar
                0x00000000        0xc ./src/Internet/MQTT/MQTTPacket/src/MQTTPacket.o
 .text.writeChar
                0x00000000        0xc ./src/Internet/MQTT/MQTTPacket/src/MQTTPacket.o
 .text.writeInt
                0x00000000       0x20 ./src/Internet/MQTT/MQTTPacket/src/MQTTPacket.o
 .text.writeCString
                0x00000000       0x3c ./src/Internet/MQTT/MQTTPacket/src/MQTTPacket.o
 .text.getLenStringLen
                0x00000000        0xc ./src/Internet/MQTT/MQTTPacket/src/MQTTPacket.o
 .text.writeMQTTString
                0x00000000       0x74 ./src/Internet/MQTT/MQTTPacket/src/MQTTPacket.o
 .text.readMQTTLenString
                0x00000000       0x34 ./src/Internet/MQTT/MQTTPacket/src/MQTTPacket.o
 .text.MQTTstrlen
                0x00000000       0x18 ./src/Internet/MQTT/MQTTPacket/src/MQTTPacket.o
 .text.MQTTPacket_equals
                0x00000000       0x44 ./src/Internet/MQTT/MQTTPacket/src/MQTTPacket.o
 .text.MQTTPacket_read
                0x00000000       0xa8 ./src/Internet/MQTT/MQTTPacket/src/MQTTPacket.o
 .text.MQTTPacket_readnb
                0x00000000      0x110 ./src/Internet/MQTT/MQTTPacket/src/MQTTPacket.o
 .bss.bufptr    0x00000000        0x4 ./src/Internet/MQTT/MQTTPacket/src/MQTTPacket.o
 .debug_info    0x00000000      0xc51 ./src/Internet/MQTT/MQTTPacket/src/MQTTPacket.o
 .debug_abbrev  0x00000000      0x3bb ./src/Internet/MQTT/MQTTPacket/src/MQTTPacket.o
 .debug_loc     0x00000000     0x10e9 ./src/Internet/MQTT/MQTTPacket/src/MQTTPacket.o
 .debug_aranges
                0x00000000       0xa0 ./src/Internet/MQTT/MQTTPacket/src/MQTTPacket.o
 .debug_ranges  0x00000000      0x340 ./src/Internet/MQTT/MQTTPacket/src/MQTTPacket.o
 .debug_line    0x00000000      0x407 ./src/Internet/MQTT/MQTTPacket/src/MQTTPacket.o
 .debug_str     0x00000000      0x3ec ./src/Internet/MQTT/MQTTPacket/src/MQTTPacket.o
 .comment       0x00000000       0x71 ./src/Internet/MQTT/MQTTPacket/src/MQTTPacket.o
 .ARM.attributes
                0x00000000       0x31 ./src/Internet/MQTT/MQTTPacket/src/MQTTPacket.o
 .debug_frame   0x00000000      0x1d4 ./src/Internet/MQTT/MQTTPacket/src/MQTTPacket.o
 .text          0x00000000        0x0 ./src/Internet/MQTT/MQTTPacket/src/MQTTSerializePublish.o
 .data          0x00000000        0x0 ./src/Internet/MQTT/MQTTPacket/src/MQTTSerializePublish.o
 .bss           0x00000000        0x0 ./src/Internet/MQTT/MQTTPacket/src/MQTTSerializePublish.o
 .text.MQTTSerialize_publishLength
                0x00000000       0x20 ./src/Internet/MQTT/MQTTPacket/src/MQTTSerializePublish.o
 .text.MQTTSerialize_publish
                0x00000000       0xbc ./src/Internet/MQTT/MQTTPacket/src/MQTTSerializePublish.o
 .text.MQTTSerialize_ack
                0x00000000       0x54 ./src/Internet/MQTT/MQTTPacket/src/MQTTSerializePublish.o
 .text.MQTTSerialize_puback
                0x00000000       0x3c ./src/Internet/MQTT/MQTTPacket/src/MQTTSerializePublish.o
 .text.MQTTSerialize_pubrel
                0x00000000       0x48 ./src/Internet/MQTT/MQTTPacket/src/MQTTSerializePublish.o
 .text.MQTTSerialize_pubcomp
                0x00000000       0x3c ./src/Internet/MQTT/MQTTPacket/src/MQTTSerializePublish.o
 .debug_info    0x00000000      0x8a1 ./src/Internet/MQTT/MQTTPacket/src/MQTTSerializePublish.o
 .debug_abbrev  0x00000000      0x278 ./src/Internet/MQTT/MQTTPacket/src/MQTTSerializePublish.o
 .debug_loc     0x00000000      0x6d1 ./src/Internet/MQTT/MQTTPacket/src/MQTTSerializePublish.o
 .debug_aranges
                0x00000000       0x48 ./src/Internet/MQTT/MQTTPacket/src/MQTTSerializePublish.o
 .debug_ranges  0x00000000       0x80 ./src/Internet/MQTT/MQTTPacket/src/MQTTSerializePublish.o
 .debug_line    0x00000000      0x1da ./src/Internet/MQTT/MQTTPacket/src/MQTTSerializePublish.o
 .debug_str     0x00000000      0x3ec ./src/Internet/MQTT/MQTTPacket/src/MQTTSerializePublish.o
 .comment       0x00000000       0x71 ./src/Internet/MQTT/MQTTPacket/src/MQTTSerializePublish.o
 .ARM.attributes
                0x00000000       0x31 ./src/Internet/MQTT/MQTTPacket/src/MQTTSerializePublish.o
 .debug_frame   0x00000000       0xd8 ./src/Internet/MQTT/MQTTPacket/src/MQTTSerializePublish.o
 .text          0x00000000        0x0 ./src/Internet/MQTT/MQTTPacket/src/MQTTSubscribeClient.o
 .data          0x00000000        0x0 ./src/Internet/MQTT/MQTTPacket/src/MQTTSubscribeClient.o
 .bss           0x00000000        0x0 ./src/Internet/MQTT/MQTTPacket/src/MQTTSubscribeClient.o
 .text.MQTTSerialize_subscribeLength
                0x00000000       0x2c ./src/Internet/MQTT/MQTTPacket/src/MQTTSubscribeClient.o
 .text.MQTTSerialize_subscribe
                0x00000000       0xb8 ./src/Internet/MQTT/MQTTPacket/src/MQTTSubscribeClient.o
 .text.MQTTDeserialize_suback
                0x00000000       0x88 ./src/Internet/MQTT/MQTTPacket/src/MQTTSubscribeClient.o
 .debug_info    0x00000000      0x5ca ./src/Internet/MQTT/MQTTPacket/src/MQTTSubscribeClient.o
 .debug_abbrev  0x00000000      0x25a ./src/Internet/MQTT/MQTTPacket/src/MQTTSubscribeClient.o
 .debug_loc     0x00000000      0x44c ./src/Internet/MQTT/MQTTPacket/src/MQTTSubscribeClient.o
 .debug_aranges
                0x00000000       0x30 ./src/Internet/MQTT/MQTTPacket/src/MQTTSubscribeClient.o
 .debug_ranges  0x00000000       0x38 ./src/Internet/MQTT/MQTTPacket/src/MQTTSubscribeClient.o
 .debug_line    0x00000000      0x116 ./src/Internet/MQTT/MQTTPacket/src/MQTTSubscribeClient.o
 .debug_str     0x00000000      0x3e7 ./src/Internet/MQTT/MQTTPacket/src/MQTTSubscribeClient.o
 .comment       0x00000000       0x71 ./src/Internet/MQTT/MQTTPacket/src/MQTTSubscribeClient.o
 .ARM.attributes
                0x00000000       0x31 ./src/Internet/MQTT/MQTTPacket/src/MQTTSubscribeClient.o
 .debug_frame   0x00000000       0x84 ./src/Internet/MQTT/MQTTPacket/src/MQTTSubscribeClient.o
 .text          0x00000000        0x0 ./src/Internet/MQTT/MQTTPacket/src/MQTTSubscribeServer.o
 .data          0x00000000        0x0 ./src/Internet/MQTT/MQTTPacket/src/MQTTSubscribeServer.o
 .bss           0x00000000        0x0 ./src/Internet/MQTT/MQTTPacket/src/MQTTSubscribeServer.o
 .text.MQTTDeserialize_subscribe
                0x00000000       0xb8 ./src/Internet/MQTT/MQTTPacket/src/MQTTSubscribeServer.o
 .text.MQTTSerialize_suback
                0x00000000       0x58 ./src/Internet/MQTT/MQTTPacket/src/MQTTSubscribeServer.o
 .debug_info    0x00000000      0x4bf ./src/Internet/MQTT/MQTTPacket/src/MQTTSubscribeServer.o
 .debug_abbrev  0x00000000      0x1d9 ./src/Internet/MQTT/MQTTPacket/src/MQTTSubscribeServer.o
 .debug_loc     0x00000000      0x27f ./src/Internet/MQTT/MQTTPacket/src/MQTTSubscribeServer.o
 .debug_aranges
                0x00000000       0x28 ./src/Internet/MQTT/MQTTPacket/src/MQTTSubscribeServer.o
 .debug_ranges  0x00000000       0x18 ./src/Internet/MQTT/MQTTPacket/src/MQTTSubscribeServer.o
 .debug_line    0x00000000       0xd6 ./src/Internet/MQTT/MQTTPacket/src/MQTTSubscribeServer.o
 .debug_str     0x00000000      0x3a9 ./src/Internet/MQTT/MQTTPacket/src/MQTTSubscribeServer.o
 .comment       0x00000000       0x71 ./src/Internet/MQTT/MQTTPacket/src/MQTTSubscribeServer.o
 .ARM.attributes
                0x00000000       0x31 ./src/Internet/MQTT/MQTTPacket/src/MQTTSubscribeServer.o
 .debug_frame   0x00000000       0x5c ./src/Internet/MQTT/MQTTPacket/src/MQTTSubscribeServer.o
 .text          0x00000000        0x0 ./src/Internet/MQTT/MQTTPacket/src/MQTTUnsubscribeClient.o
 .data          0x00000000        0x0 ./src/Internet/MQTT/MQTTPacket/src/MQTTUnsubscribeClient.o
 .bss           0x00000000        0x0 ./src/Internet/MQTT/MQTTPacket/src/MQTTUnsubscribeClient.o
 .text.MQTTSerialize_unsubscribeLength
                0x00000000       0x2c ./src/Internet/MQTT/MQTTPacket/src/MQTTUnsubscribeClient.o
 .text.MQTTSerialize_unsubscribe
                0x00000000       0xac ./src/Internet/MQTT/MQTTPacket/src/MQTTUnsubscribeClient.o
 .text.MQTTDeserialize_unsuback
                0x00000000       0x28 ./src/Internet/MQTT/MQTTPacket/src/MQTTUnsubscribeClient.o
 .debug_info    0x00000000      0x510 ./src/Internet/MQTT/MQTTPacket/src/MQTTUnsubscribeClient.o
 .debug_abbrev  0x00000000      0x23e ./src/Internet/MQTT/MQTTPacket/src/MQTTUnsubscribeClient.o
 .debug_loc     0x00000000      0x38c ./src/Internet/MQTT/MQTTPacket/src/MQTTUnsubscribeClient.o
 .debug_aranges
                0x00000000       0x30 ./src/Internet/MQTT/MQTTPacket/src/MQTTUnsubscribeClient.o
 .debug_ranges  0x00000000       0x38 ./src/Internet/MQTT/MQTTPacket/src/MQTTUnsubscribeClient.o
 .debug_line    0x00000000       0xf6 ./src/Internet/MQTT/MQTTPacket/src/MQTTUnsubscribeClient.o
 .debug_str     0x00000000      0x3a4 ./src/Internet/MQTT/MQTTPacket/src/MQTTUnsubscribeClient.o
 .comment       0x00000000       0x71 ./src/Internet/MQTT/MQTTPacket/src/MQTTUnsubscribeClient.o
 .ARM.attributes
                0x00000000       0x31 ./src/Internet/MQTT/MQTTPacket/src/MQTTUnsubscribeClient.o
 .debug_frame   0x00000000       0x7c ./src/Internet/MQTT/MQTTPacket/src/MQTTUnsubscribeClient.o
 .text          0x00000000        0x0 ./src/Internet/MQTT/MQTTPacket/src/MQTTUnsubscribeServer.o
 .data          0x00000000        0x0 ./src/Internet/MQTT/MQTTPacket/src/MQTTUnsubscribeServer.o
 .bss           0x00000000        0x0 ./src/Internet/MQTT/MQTTPacket/src/MQTTUnsubscribeServer.o
 .text.MQTTDeserialize_unsubscribe
                0x00000000       0x84 ./src/Internet/MQTT/MQTTPacket/src/MQTTUnsubscribeServer.o
 .text.MQTTSerialize_unsuback
                0x00000000       0x3c ./src/Internet/MQTT/MQTTPacket/src/MQTTUnsubscribeServer.o
 .debug_info    0x00000000      0x45e ./src/Internet/MQTT/MQTTPacket/src/MQTTUnsubscribeServer.o
 .debug_abbrev  0x00000000      0x1d9 ./src/Internet/MQTT/MQTTPacket/src/MQTTUnsubscribeServer.o
 .debug_loc     0x00000000      0x210 ./src/Internet/MQTT/MQTTPacket/src/MQTTUnsubscribeServer.o
 .debug_aranges
                0x00000000       0x28 ./src/Internet/MQTT/MQTTPacket/src/MQTTUnsubscribeServer.o
 .debug_ranges  0x00000000       0x18 ./src/Internet/MQTT/MQTTPacket/src/MQTTUnsubscribeServer.o
 .debug_line    0x00000000       0xbe ./src/Internet/MQTT/MQTTPacket/src/MQTTUnsubscribeServer.o
 .debug_str     0x00000000      0x395 ./src/Internet/MQTT/MQTTPacket/src/MQTTUnsubscribeServer.o
 .comment       0x00000000       0x71 ./src/Internet/MQTT/MQTTPacket/src/MQTTUnsubscribeServer.o
 .ARM.attributes
                0x00000000       0x31 ./src/Internet/MQTT/MQTTPacket/src/MQTTUnsubscribeServer.o
 .debug_frame   0x00000000       0x58 ./src/Internet/MQTT/MQTTPacket/src/MQTTUnsubscribeServer.o
 .text          0x00000000        0x0 ./src/Internet/MQTT/MQTTClient.o
 .data          0x00000000        0x0 ./src/Internet/MQTT/MQTTClient.o
 .bss           0x00000000        0x0 ./src/Internet/MQTT/MQTTClient.o
 .text.MQTTClientInit
                0x00000000       0x34 ./src/Internet/MQTT/MQTTClient.o
 .text.deliverMessage
                0x00000000      0x10c ./src/Internet/MQTT/MQTTClient.o
 .text.keepalive
                0x00000000       0xa0 ./src/Internet/MQTT/MQTTClient.o
 .text.cycle    0x00000000      0x278 ./src/Internet/MQTT/MQTTClient.o
 .text.MQTTYield
                0x00000000       0x38 ./src/Internet/MQTT/MQTTClient.o
 .text.MQTTRun  0x00000000       0x20 ./src/Internet/MQTT/MQTTClient.o
 .text.waitfor  0x00000000       0x2c ./src/Internet/MQTT/MQTTClient.o
 .text.MQTTConnect
                0x00000000       0xf0 ./src/Internet/MQTT/MQTTClient.o
 .text.MQTTSubscribe
                0x00000000      0x14c ./src/Internet/MQTT/MQTTClient.o
 .text.MQTTUnsubscribe
                0x00000000       0xd8 ./src/Internet/MQTT/MQTTClient.o
 .text.MQTTPublish
                0x00000000      0x144 ./src/Internet/MQTT/MQTTClient.o
 .text.MQTTDisconnect
                0x00000000       0x7c ./src/Internet/MQTT/MQTTClient.o
 .rodata        0x00000000       0x58 ./src/Internet/MQTT/MQTTClient.o
 .debug_info    0x00000000     0x1edc ./src/Internet/MQTT/MQTTClient.o
 .debug_abbrev  0x00000000      0x472 ./src/Internet/MQTT/MQTTClient.o
 .debug_loc     0x00000000     0x1206 ./src/Internet/MQTT/MQTTClient.o
 .debug_aranges
                0x00000000       0x78 ./src/Internet/MQTT/MQTTClient.o
 .debug_ranges  0x00000000      0x230 ./src/Internet/MQTT/MQTTClient.o
 .debug_line    0x00000000      0x4d9 ./src/Internet/MQTT/MQTTClient.o
 .debug_str     0x00000000      0x86b ./src/Internet/MQTT/MQTTClient.o
 .comment       0x00000000       0x71 ./src/Internet/MQTT/MQTTClient.o
 .ARM.attributes
                0x00000000       0x31 ./src/Internet/MQTT/MQTTClient.o
 .debug_frame   0x00000000      0x1d8 ./src/Internet/MQTT/MQTTClient.o
 .text          0x00000000        0x0 ./src/Internet/MQTT/mqtt_interface.o
 .data          0x00000000        0x0 ./src/Internet/MQTT/mqtt_interface.o
 .bss           0x00000000        0x0 ./src/Internet/MQTT/mqtt_interface.o
 .text.w5x00_disconnect
                0x00000000        0xc ./src/Internet/MQTT/mqtt_interface.o
 .text.w5x00_read
                0x00000000       0x34 ./src/Internet/MQTT/mqtt_interface.o
 .text.w5x00_write
                0x00000000       0x28 ./src/Internet/MQTT/mqtt_interface.o
 .text.MilliTimer_Handler
                0x00000000       0x10 ./src/Internet/MQTT/mqtt_interface.o
 .text.TimerInit
                0x00000000        0x8 ./src/Internet/MQTT/mqtt_interface.o
 .text.TimerIsExpired
                0x00000000       0x10 ./src/Internet/MQTT/mqtt_interface.o
 .text.TimerCountdownMS
                0x00000000       0x10 ./src/Internet/MQTT/mqtt_interface.o
 .text.TimerCountdown
                0x00000000       0x14 ./src/Internet/MQTT/mqtt_interface.o
 .text.TimerLeftMS
                0x00000000       0x14 ./src/Internet/MQTT/mqtt_interface.o
 .text.NewNetwork
                0x00000000       0x1c ./src/Internet/MQTT/mqtt_interface.o
 .text.ConnectNetwork
                0x00000000       0x20 ./src/Internet/MQTT/mqtt_interface.o
 .debug_info    0x00000000      0x5a0 ./src/Internet/MQTT/mqtt_interface.o
 .debug_abbrev  0x00000000      0x211 ./src/Internet/MQTT/mqtt_interface.o
 .debug_loc     0x00000000      0x361 ./src/Internet/MQTT/mqtt_interface.o
 .debug_aranges
                0x00000000       0x70 ./src/Internet/MQTT/mqtt_interface.o
 .debug_ranges  0x00000000       0x60 ./src/Internet/MQTT/mqtt_interface.o
 .debug_line    0x00000000      0x1f0 ./src/Internet/MQTT/mqtt_interface.o
 .debug_str     0x00000000      0x31f ./src/Internet/MQTT/mqtt_interface.o
 .comment       0x00000000       0x71 ./src/Internet/MQTT/mqtt_interface.o
 .ARM.attributes
                0x00000000       0x31 ./src/Internet/MQTT/mqtt_interface.o
 .debug_frame   0x00000000       0xec ./src/Internet/MQTT/mqtt_interface.o
 COMMON         0x00000000        0x4 ./src/Internet/MQTT/mqtt_interface.o
 .text          0x00000000        0x0 ./src/Internet/FTPServer/ftpd.o
 .data          0x00000000        0x0 ./src/Internet/FTPServer/ftpd.o
 .bss           0x00000000        0x0 ./src/Internet/FTPServer/ftpd.o
 .text.fsprintf
                0x00000000        0x8 ./src/Internet/FTPServer/ftpd.o
 .text.ftpd_init
                0x00000000       0x54 ./src/Internet/FTPServer/ftpd.o
 .text.ftplogin
                0x00000000       0x38 ./src/Internet/FTPServer/ftpd.o
 .text.pport    0x00000000       0xbc ./src/Internet/FTPServer/ftpd.o
 .text.proc_ftpd
                0x00000000      0x554 ./src/Internet/FTPServer/ftpd.o
 .rodata.proc_ftpd
                0x00000000      0x118 ./src/Internet/FTPServer/ftpd.o
 .text.ftpd_run
                0x00000000      0x4cc ./src/Internet/FTPServer/ftpd.o
 .data.current_min
                0x00000000        0x4 ./src/Internet/FTPServer/ftpd.o
 .data.commands
                0x00000000       0x78 ./src/Internet/FTPServer/ftpd.o
 .bss.connect_state_control
                0x00000000        0x1 ./src/Internet/FTPServer/ftpd.o
 .data.current_month
                0x00000000        0x4 ./src/Internet/FTPServer/ftpd.o
 .rodata.str1.4
                0x00000000      0x7a4 ./src/Internet/FTPServer/ftpd.o
 .bss.connect_state_data
                0x00000000        0x1 ./src/Internet/FTPServer/ftpd.o
 .data.current_hour
                0x00000000        0x4 ./src/Internet/FTPServer/ftpd.o
 .data.current_year
                0x00000000        0x4 ./src/Internet/FTPServer/ftpd.o
 .data.current_day
                0x00000000        0x4 ./src/Internet/FTPServer/ftpd.o
 .data.current_sec
                0x00000000        0x4 ./src/Internet/FTPServer/ftpd.o
 .debug_info    0x00000000     0x18e1 ./src/Internet/FTPServer/ftpd.o
 .debug_abbrev  0x00000000      0x2f0 ./src/Internet/FTPServer/ftpd.o
 .debug_loc     0x00000000      0x7ea ./src/Internet/FTPServer/ftpd.o
 .debug_aranges
                0x00000000       0x48 ./src/Internet/FTPServer/ftpd.o
 .debug_ranges  0x00000000       0x78 ./src/Internet/FTPServer/ftpd.o
 .debug_line    0x00000000      0x51f ./src/Internet/FTPServer/ftpd.o
 .debug_str     0x00000000      0x605 ./src/Internet/FTPServer/ftpd.o
 .comment       0x00000000       0x71 ./src/Internet/FTPServer/ftpd.o
 .ARM.attributes
                0x00000000       0x31 ./src/Internet/FTPServer/ftpd.o
 .debug_frame   0x00000000       0xcc ./src/Internet/FTPServer/ftpd.o
 COMMON         0x00000000      0x142 ./src/Internet/FTPServer/ftpd.o
 .text          0x00000000        0x0 ./src/Internet/FTPClient/ftpc.o
 .data          0x00000000        0x0 ./src/Internet/FTPClient/ftpc.o
 .bss           0x00000000        0x0 ./src/Internet/FTPClient/ftpc.o
 .text.ftpc_init
                0x00000000       0x50 ./src/Internet/FTPClient/ftpc.o
 .text.ftpc_run
                0x00000000        0x4 ./src/Internet/FTPClient/ftpc.o
 .text.pportc   0x00000000       0xc4 ./src/Internet/FTPClient/ftpc.o
 .text.proc_ftpc
                0x00000000      0x19c ./src/Internet/FTPClient/ftpc.o
 .text.User_Keyboard_MSG
                0x00000000       0x24 ./src/Internet/FTPClient/ftpc.o
 .bss.gDataPutGetStart
                0x00000000        0x1 ./src/Internet/FTPClient/ftpc.o
 .bss.gModeActivePassiveflag
                0x00000000        0x1 ./src/Internet/FTPClient/ftpc.o
 .bss.gMenuStart
                0x00000000        0x1 ./src/Internet/FTPClient/ftpc.o
 .bss.connect_state_data_ftpc
                0x00000000        0x1 ./src/Internet/FTPClient/ftpc.o
 .rodata.str1.4
                0x00000000      0x11c ./src/Internet/FTPClient/ftpc.o
 .bss.gMsgBuf   0x00000000       0x14 ./src/Internet/FTPClient/ftpc.o
 .bss.gDataSockReady
                0x00000000        0x1 ./src/Internet/FTPClient/ftpc.o
 .data.FTP_destip
                0x00000000        0x4 ./src/Internet/FTPClient/ftpc.o
 .bss.connect_state_control_ftpc
                0x00000000        0x1 ./src/Internet/FTPClient/ftpc.o
 .data.FTP_destport
                0x00000000        0x2 ./src/Internet/FTPClient/ftpc.o
 .debug_info    0x00000000      0x85b ./src/Internet/FTPClient/ftpc.o
 .debug_abbrev  0x00000000      0x27e ./src/Internet/FTPClient/ftpc.o
 .debug_loc     0x00000000      0x30c ./src/Internet/FTPClient/ftpc.o
 .debug_aranges
                0x00000000       0x40 ./src/Internet/FTPClient/ftpc.o
 .debug_ranges  0x00000000       0x68 ./src/Internet/FTPClient/ftpc.o
 .debug_line    0x00000000      0x267 ./src/Internet/FTPClient/ftpc.o
 .debug_str     0x00000000      0x47e ./src/Internet/FTPClient/ftpc.o
 .comment       0x00000000       0x71 ./src/Internet/FTPClient/ftpc.o
 .ARM.attributes
                0x00000000       0x31 ./src/Internet/FTPClient/ftpc.o
 .debug_frame   0x00000000       0x98 ./src/Internet/FTPClient/ftpc.o
 COMMON         0x00000000       0xd2 ./src/Internet/FTPClient/ftpc.o
 .text          0x00000000        0x0 ./src/Internet/DNS/dns.o
 .data          0x00000000        0x0 ./src/Internet/DNS/dns.o
 .bss           0x00000000        0x0 ./src/Internet/DNS/dns.o
 .text.get16    0x00000000        0xc ./src/Internet/DNS/dns.o
 .text.put16    0x00000000        0xc ./src/Internet/DNS/dns.o
 .text.parse_name
                0x00000000      0x154 ./src/Internet/DNS/dns.o
 .text.dns_question
                0x00000000      0x110 ./src/Internet/DNS/dns.o
 .text.dns_answer
                0x00000000      0x558 ./src/Internet/DNS/dns.o
 .rodata.dns_answer
                0x00000000       0x40 ./src/Internet/DNS/dns.o
 .text.dns_makequery
                0x00000000       0xd0 ./src/Internet/DNS/dns.o
 .text.check_DNS_timeout
                0x00000000       0x30 ./src/Internet/DNS/dns.o
 .text          0x00000000        0x0 ./src/Internet/DHCP/dhcp.o
 .data          0x00000000        0x0 ./src/Internet/DHCP/dhcp.o
 .bss           0x00000000        0x0 ./src/Internet/DHCP/dhcp.o
 .text.parseDHCPMSG
                0x00000000      0x174 ./src/Internet/DHCP/dhcp.o
 .text.DHCP_stop
                0x00000000       0x1c ./src/Internet/DHCP/dhcp.o
 .text.check_DHCP_timeout
                0x00000000       0x94 ./src/Internet/DHCP/dhcp.o
 .text.check_DHCP_leasedIP
                0x00000000       0x68 ./src/Internet/DHCP/dhcp.o
 .text.reset_DHCP_timeout
                0x00000000       0x20 ./src/Internet/DHCP/dhcp.o
 .text.getDHCPLeasetime
                0x00000000        0xc ./src/Internet/DHCP/dhcp.o
 .text          0x00000000        0x0 ./src/Ethernet/W5500/w5500.o
 .data          0x00000000        0x0 ./src/Ethernet/W5500/w5500.o
 .bss           0x00000000        0x0 ./src/Ethernet/W5500/w5500.o
 .text          0x00000000        0x0 ./src/Ethernet/socket.o
 .data          0x00000000        0x0 ./src/Ethernet/socket.o
 .bss           0x00000000        0x0 ./src/Ethernet/socket.o
 .text.setsockopt
                0x00000000      0x128 ./src/Ethernet/socket.o
 .rodata.setsockopt
                0x00000000       0x20 ./src/Ethernet/socket.o
 .text          0x00000000        0x0 ./src/Ethernet/wizchip_conf.o
 .data          0x00000000        0x0 ./src/Ethernet/wizchip_conf.o
 .bss           0x00000000        0x0 ./src/Ethernet/wizchip_conf.o
 .text.reg_wizchip_cris_cbfunc
                0x00000000       0x24 ./src/Ethernet/wizchip_conf.o
 .text.reg_wizchip_bus_cbfunc
                0x00000000       0x2c ./src/Ethernet/wizchip_conf.o
 .text.wizchip_sw_reset
                0x00000000       0x78 ./src/Ethernet/wizchip_conf.o
 .text.wizchip_clrinterrupt
                0x00000000       0x1c ./src/Ethernet/wizchip_conf.o
 .text.wizchip_getinterrupt
                0x00000000       0x24 ./src/Ethernet/wizchip_conf.o
 .text.wizchip_setinterruptmask
                0x00000000       0x1c ./src/Ethernet/wizchip_conf.o
 .text.wizchip_getinterruptmask
                0x00000000       0x1c ./src/Ethernet/wizchip_conf.o
 .text.wizphy_getphylink
                0x00000000       0x10 ./src/Ethernet/wizchip_conf.o
 .text.wizphy_getphypmode
                0x00000000       0x18 ./src/Ethernet/wizchip_conf.o
 .text.wizphy_reset
                0x00000000       0x2c ./src/Ethernet/wizchip_conf.o
 .text.wizphy_setphyconf
                0x00000000       0x80 ./src/Ethernet/wizchip_conf.o
 .text.wizphy_getphyconf
                0x00000000       0x68 ./src/Ethernet/wizchip_conf.o
 .text.wizphy_getphystat
                0x00000000       0x1c ./src/Ethernet/wizchip_conf.o
 .text.wizphy_setphypmode
                0x00000000       0xbc ./src/Ethernet/wizchip_conf.o
 .text.wizchip_setnetinfo
                0x00000000       0x5c ./src/Ethernet/wizchip_conf.o
 .text.wizchip_getnetinfo
                0x00000000       0x5c ./src/Ethernet/wizchip_conf.o
 .text.wizchip_setnetmode
                0x00000000       0x28 ./src/Ethernet/wizchip_conf.o
 .text.wizchip_getnetmode
                0x00000000        0xc ./src/Ethernet/wizchip_conf.o
 .text.wizchip_settimeout
                0x00000000       0x28 ./src/Ethernet/wizchip_conf.o
 .text.wizchip_gettimeout
                0x00000000       0x28 ./src/Ethernet/wizchip_conf.o
 .text          0x00000000        0x0 ./src/Configuration/ConfigData.o
 .data          0x00000000        0x0 ./src/Configuration/ConfigData.o
 .bss           0x00000000        0x0 ./src/Configuration/ConfigData.o
 .text.display_Net_Info
                0x00000000       0x80 ./src/Configuration/ConfigData.o
 .text.set_dhcp_mode
                0x00000000       0x10 ./src/Configuration/ConfigData.o
 .text.set_static_mode
                0x00000000       0x10 ./src/Configuration/ConfigData.o
 .rodata.str1.4
                0x00000000       0x78 ./src/Configuration/ConfigData.o
 .text          0x00000000        0x0 ./src/Configuration/ConfigMessage.o
 .data          0x00000000        0x0 ./src/Configuration/ConfigMessage.o
 .bss           0x00000000        0x0 ./src/Configuration/ConfigMessage.o
 .text.reply_firmware_upload_done
                0x00000000       0xd4 ./src/Configuration/ConfigMessage.o
 .text          0x00000000        0x0 ./src/ATcmd/library/sockutil.o
 .data          0x00000000        0x0 ./src/ATcmd/library/sockutil.o
 .bss           0x00000000        0x0 ./src/ATcmd/library/sockutil.o
 .text.sockwatch_close
                0x00000000       0x24 ./src/ATcmd/library/sockutil.o
 .text.sockwatch_chk
                0x00000000       0x20 ./src/ATcmd/library/sockutil.o
 .text          0x00000000        0x0 ./src/ATcmd/library/util.o
 .data          0x00000000        0x0 ./src/ATcmd/library/util.o
 .bss           0x00000000        0x0 ./src/ATcmd/library/util.o
 .text.checksum
                0x00000000       0x44 ./src/ATcmd/library/util.o
 .text          0x00000000        0x0 ./src/ATcmd/atcmd.o
 .data          0x00000000        0x0 ./src/ATcmd/atcmd.o
 .bss           0x00000000        0x0 ./src/ATcmd/atcmd.o
 .text          0x00000000        0x0 ./src/ATcmd/cmdrun.o
 .data          0x00000000        0x0 ./src/ATcmd/cmdrun.o
 .bss           0x00000000        0x0 ./src/ATcmd/cmdrun.o
 .text          0x00000000        0x0 ./src/aeabi_romdiv_patch.o
 .data          0x00000000        0x0 ./src/aeabi_romdiv_patch.o
 .bss           0x00000000        0x0 ./src/aeabi_romdiv_patch.o
 .text          0x00000000        0x0 ./src/cr_startup_lpc11exx.o
 .data          0x00000000        0x0 ./src/cr_startup_lpc11exx.o
 .bss           0x00000000        0x0 ./src/cr_startup_lpc11exx.o
 .text          0x00000000        0x0 ./src/crp.o
 .data          0x00000000        0x0 ./src/crp.o
 .bss           0x00000000        0x0 ./src/crp.o
 .text          0x00000000        0x0 ./src/main.o
 .data          0x00000000        0x0 ./src/main.o
 .bss           0x00000000        0x0 ./src/main.o
 .text          0x00000000        0x0 ./src/sysinit.o
 .data          0x00000000        0x0 ./src/sysinit.o
 .bss           0x00000000        0x0 ./src/sysinit.o
 .text          0x00000000        0x0 C:\Users\boomw\Documents\lpcxpresso-workspace-wiz550s2e\wiznet_s2e_wiz550s2e_board\Release\libwiznet_s2e_wiz550s2e_board.a(board.o)
 .data          0x00000000        0x0 C:\Users\boomw\Documents\lpcxpresso-workspace-wiz550s2e\wiznet_s2e_wiz550s2e_board\Release\libwiznet_s2e_wiz550s2e_board.a(board.o)
 .bss           0x00000000        0x0 C:\Users\boomw\Documents\lpcxpresso-workspace-wiz550s2e\wiznet_s2e_wiz550s2e_board\Release\libwiznet_s2e_wiz550s2e_board.a(board.o)
 .text.Board_UARTGetChar
                0x00000000       0x24 C:\Users\boomw\Documents\lpcxpresso-workspace-wiz550s2e\wiznet_s2e_wiz550s2e_board\Release\libwiznet_s2e_wiz550s2e_board.a(board.o)
 .text.__sys_readc
                0x00000000        0xa C:\Users\boomw\Documents\lpcxpresso-workspace-wiz550s2e\wiznet_s2e_wiz550s2e_board\Release\libwiznet_s2e_wiz550s2e_board.a(board.o)
 .text.Board_UARTPutSTR
                0x00000000       0x14 C:\Users\boomw\Documents\lpcxpresso-workspace-wiz550s2e\wiznet_s2e_wiz550s2e_board\Release\libwiznet_s2e_wiz550s2e_board.a(board.o)
 .text.Board_LED_Test
                0x00000000       0x2c C:\Users\boomw\Documents\lpcxpresso-workspace-wiz550s2e\wiznet_s2e_wiz550s2e_board\Release\libwiznet_s2e_wiz550s2e_board.a(board.o)
 .text.Board_hwtrig_get
                0x00000000       0x10 C:\Users\boomw\Documents\lpcxpresso-workspace-wiz550s2e\wiznet_s2e_wiz550s2e_board\Release\libwiznet_s2e_wiz550s2e_board.a(board.o)
 .rodata.ExtRateIn
                0x00000000        0x4 C:\Users\boomw\Documents\lpcxpresso-workspace-wiz550s2e\wiznet_s2e_wiz550s2e_board\Release\libwiznet_s2e_wiz550s2e_board.a(board.o)
 .text          0x00000000        0x0 C:\Users\boomw\Documents\lpcxpresso-workspace-wiz550s2e\wiznet_s2e_wiz550s2e_board\Release\libwiznet_s2e_wiz550s2e_board.a(board_sysinit.o)
 .data          0x00000000        0x0 C:\Users\boomw\Documents\lpcxpresso-workspace-wiz550s2e\wiznet_s2e_wiz550s2e_board\Release\libwiznet_s2e_wiz550s2e_board.a(board_sysinit.o)
 .bss           0x00000000        0x0 C:\Users\boomw\Documents\lpcxpresso-workspace-wiz550s2e\wiznet_s2e_wiz550s2e_board\Release\libwiznet_s2e_wiz550s2e_board.a(board_sysinit.o)
 .text          0x00000000        0x0 C:\Users\boomw\Documents\lpcxpresso-workspace-wiz550s2e\lpc_chip_11exx\Release\liblpc_chip_11exx.a(chip_11xx.o)
 .data          0x00000000        0x0 C:\Users\boomw\Documents\lpcxpresso-workspace-wiz550s2e\lpc_chip_11exx\Release\liblpc_chip_11exx.a(chip_11xx.o)
 .bss           0x00000000        0x0 C:\Users\boomw\Documents\lpcxpresso-workspace-wiz550s2e\lpc_chip_11exx\Release\liblpc_chip_11exx.a(chip_11xx.o)
 .text          0x00000000        0x0 C:\Users\boomw\Documents\lpcxpresso-workspace-wiz550s2e\lpc_chip_11exx\Release\liblpc_chip_11exx.a(clock_11xx.o)
 .data          0x00000000        0x0 C:\Users\boomw\Documents\lpcxpresso-workspace-wiz550s2e\lpc_chip_11exx\Release\liblpc_chip_11exx.a(clock_11xx.o)
 .bss           0x00000000        0x0 C:\Users\boomw\Documents\lpcxpresso-workspace-wiz550s2e\lpc_chip_11exx\Release\liblpc_chip_11exx.a(clock_11xx.o)
 .text.Chip_Clock_SetPLLBypass
                0x00000000       0x14 C:\Users\boomw\Documents\lpcxpresso-workspace-wiz550s2e\lpc_chip_11exx\Release\liblpc_chip_11exx.a(clock_11xx.o)
 .text.Chip_Clock_SetWDTClockSource
                0x00000000       0x1c C:\Users\boomw\Documents\lpcxpresso-workspace-wiz550s2e\lpc_chip_11exx\Release\liblpc_chip_11exx.a(clock_11xx.o)
 .text.Chip_Clock_SetCLKOUTSource
                0x00000000       0x1c C:\Users\boomw\Documents\lpcxpresso-workspace-wiz550s2e\lpc_chip_11exx\Release\liblpc_chip_11exx.a(clock_11xx.o)
 .text          0x00000000        0x0 C:\Users\boomw\Documents\lpcxpresso-workspace-wiz550s2e\lpc_chip_11exx\Release\liblpc_chip_11exx.a(gpio_11xx_1.o)
 .data          0x00000000        0x0 C:\Users\boomw\Documents\lpcxpresso-workspace-wiz550s2e\lpc_chip_11exx\Release\liblpc_chip_11exx.a(gpio_11xx_1.o)
 .bss           0x00000000        0x0 C:\Users\boomw\Documents\lpcxpresso-workspace-wiz550s2e\lpc_chip_11exx\Release\liblpc_chip_11exx.a(gpio_11xx_1.o)
 .text.Chip_GPIO_DeInit
                0x00000000       0x10 C:\Users\boomw\Documents\lpcxpresso-workspace-wiz550s2e\lpc_chip_11exx\Release\liblpc_chip_11exx.a(gpio_11xx_1.o)
 .text.Chip_GPIO_WriteDirBit
                0x00000000       0x28 C:\Users\boomw\Documents\lpcxpresso-workspace-wiz550s2e\lpc_chip_11exx\Release\liblpc_chip_11exx.a(gpio_11xx_1.o)
 .text.Chip_GPIO_SetDir
                0x00000000       0x1e C:\Users\boomw\Documents\lpcxpresso-workspace-wiz550s2e\lpc_chip_11exx\Release\liblpc_chip_11exx.a(gpio_11xx_1.o)
 .text.Chip_GPIO_SetPinDIR
                0x00000000       0x28 C:\Users\boomw\Documents\lpcxpresso-workspace-wiz550s2e\lpc_chip_11exx\Release\liblpc_chip_11exx.a(gpio_11xx_1.o)
 .text.Chip_GPIO_SetPortDIR
                0x00000000       0x1e C:\Users\boomw\Documents\lpcxpresso-workspace-wiz550s2e\lpc_chip_11exx\Release\liblpc_chip_11exx.a(gpio_11xx_1.o)
 .text          0x00000000        0x0 C:\Users\boomw\Documents\lpcxpresso-workspace-wiz550s2e\lpc_chip_11exx\Release\liblpc_chip_11exx.a(iocon_11xx.o)
 .data          0x00000000        0x0 C:\Users\boomw\Documents\lpcxpresso-workspace-wiz550s2e\lpc_chip_11exx\Release\liblpc_chip_11exx.a(iocon_11xx.o)
 .bss           0x00000000        0x0 C:\Users\boomw\Documents\lpcxpresso-workspace-wiz550s2e\lpc_chip_11exx\Release\liblpc_chip_11exx.a(iocon_11xx.o)
 .text          0x00000000        0x0 C:\Users\boomw\Documents\lpcxpresso-workspace-wiz550s2e\lpc_chip_11exx\Release\liblpc_chip_11exx.a(ring_buffer.o)
 .data          0x00000000        0x0 C:\Users\boomw\Documents\lpcxpresso-workspace-wiz550s2e\lpc_chip_11exx\Release\liblpc_chip_11exx.a(ring_buffer.o)
 .bss           0x00000000        0x0 C:\Users\boomw\Documents\lpcxpresso-workspace-wiz550s2e\lpc_chip_11exx\Release\liblpc_chip_11exx.a(ring_buffer.o)
 .text          0x00000000        0x0 C:\Users\boomw\Documents\lpcxpresso-workspace-wiz550s2e\lpc_chip_11exx\Release\liblpc_chip_11exx.a(ssp_11xx.o)
 .data          0x00000000        0x0 C:\Users\boomw\Documents\lpcxpresso-workspace-wiz550s2e\lpc_chip_11exx\Release\liblpc_chip_11exx.a(ssp_11xx.o)
 .bss           0x00000000        0x0 C:\Users\boomw\Documents\lpcxpresso-workspace-wiz550s2e\lpc_chip_11exx\Release\liblpc_chip_11exx.a(ssp_11xx.o)
 .text.SSP_Read2BFifo
                0x00000000       0x24 C:\Users\boomw\Documents\lpcxpresso-workspace-wiz550s2e\lpc_chip_11exx\Release\liblpc_chip_11exx.a(ssp_11xx.o)
 .text.SSP_Read1BFifo
                0x00000000       0x24 C:\Users\boomw\Documents\lpcxpresso-workspace-wiz550s2e\lpc_chip_11exx\Release\liblpc_chip_11exx.a(ssp_11xx.o)
 .text.Chip_SSP_RWFrames_Blocking
                0x00000000       0xb4 C:\Users\boomw\Documents\lpcxpresso-workspace-wiz550s2e\lpc_chip_11exx\Release\liblpc_chip_11exx.a(ssp_11xx.o)
 .text.Chip_SSP_Int_FlushData
                0x00000000       0x16 C:\Users\boomw\Documents\lpcxpresso-workspace-wiz550s2e\lpc_chip_11exx\Release\liblpc_chip_11exx.a(ssp_11xx.o)
 .text.Chip_SSP_Int_RWFrames8Bits
                0x00000000       0x52 C:\Users\boomw\Documents\lpcxpresso-workspace-wiz550s2e\lpc_chip_11exx\Release\liblpc_chip_11exx.a(ssp_11xx.o)
 .text.Chip_SSP_Int_RWFrames16Bits
                0x00000000       0x58 C:\Users\boomw\Documents\lpcxpresso-workspace-wiz550s2e\lpc_chip_11exx\Release\liblpc_chip_11exx.a(ssp_11xx.o)
 .text.Chip_SSP_DeInit
                0x00000000       0x40 C:\Users\boomw\Documents\lpcxpresso-workspace-wiz550s2e\lpc_chip_11exx\Release\liblpc_chip_11exx.a(ssp_11xx.o)
 .text          0x00000000        0x0 C:\Users\boomw\Documents\lpcxpresso-workspace-wiz550s2e\lpc_chip_11exx\Release\liblpc_chip_11exx.a(sysctl_11xx.o)
 .data          0x00000000        0x0 C:\Users\boomw\Documents\lpcxpresso-workspace-wiz550s2e\lpc_chip_11exx\Release\liblpc_chip_11exx.a(sysctl_11xx.o)
 .bss           0x00000000        0x0 C:\Users\boomw\Documents\lpcxpresso-workspace-wiz550s2e\lpc_chip_11exx\Release\liblpc_chip_11exx.a(sysctl_11xx.o)
 .text.Chip_SYSCTL_SetDeepSleepPD
                0x00000000       0x18 C:\Users\boomw\Documents\lpcxpresso-workspace-wiz550s2e\lpc_chip_11exx\Release\liblpc_chip_11exx.a(sysctl_11xx.o)
 .text.Chip_SYSCTL_SetWakeup
                0x00000000       0x18 C:\Users\boomw\Documents\lpcxpresso-workspace-wiz550s2e\lpc_chip_11exx\Release\liblpc_chip_11exx.a(sysctl_11xx.o)
 .text          0x00000000        0x0 C:\Users\boomw\Documents\lpcxpresso-workspace-wiz550s2e\lpc_chip_11exx\Release\liblpc_chip_11exx.a(timer_11xx.o)
 .data          0x00000000        0x0 C:\Users\boomw\Documents\lpcxpresso-workspace-wiz550s2e\lpc_chip_11exx\Release\liblpc_chip_11exx.a(timer_11xx.o)
 .bss           0x00000000        0x0 C:\Users\boomw\Documents\lpcxpresso-workspace-wiz550s2e\lpc_chip_11exx\Release\liblpc_chip_11exx.a(timer_11xx.o)
 .text.Chip_TIMER_DeInit
                0x00000000       0x3c C:\Users\boomw\Documents\lpcxpresso-workspace-wiz550s2e\lpc_chip_11exx\Release\liblpc_chip_11exx.a(timer_11xx.o)
 .text.Chip_TIMER_ExtMatchControlSet
                0x00000000       0x24 C:\Users\boomw\Documents\lpcxpresso-workspace-wiz550s2e\lpc_chip_11exx\Release\liblpc_chip_11exx.a(timer_11xx.o)
 .text          0x00000000        0x0 C:\Users\boomw\Documents\lpcxpresso-workspace-wiz550s2e\lpc_chip_11exx\Release\liblpc_chip_11exx.a(uart_11xx.o)
 .data          0x00000000        0x0 C:\Users\boomw\Documents\lpcxpresso-workspace-wiz550s2e\lpc_chip_11exx\Release\liblpc_chip_11exx.a(uart_11xx.o)
 .bss           0x00000000        0x0 C:\Users\boomw\Documents\lpcxpresso-workspace-wiz550s2e\lpc_chip_11exx\Release\liblpc_chip_11exx.a(uart_11xx.o)
 .text.Chip_UART_DeInit
                0x00000000       0x14 C:\Users\boomw\Documents\lpcxpresso-workspace-wiz550s2e\lpc_chip_11exx\Release\liblpc_chip_11exx.a(uart_11xx.o)
 .text.Chip_UART_Read
                0x00000000       0x1a C:\Users\boomw\Documents\lpcxpresso-workspace-wiz550s2e\lpc_chip_11exx\Release\liblpc_chip_11exx.a(uart_11xx.o)
 .text.Chip_UART_ReadBlocking
                0x00000000       0x24 C:\Users\boomw\Documents\lpcxpresso-workspace-wiz550s2e\lpc_chip_11exx\Release\liblpc_chip_11exx.a(uart_11xx.o)
 .text.Chip_UART_SetBaudFDR
                0x00000000       0x7c C:\Users\boomw\Documents\lpcxpresso-workspace-wiz550s2e\lpc_chip_11exx\Release\liblpc_chip_11exx.a(uart_11xx.o)
 .text          0x00000000        0x0 c:/nxp/lpcxpresso_7.5.0_254/lpcxpresso/tools/bin/../lib/gcc/arm-none-eabi/4.8.4/../../../../arm-none-eabi/lib/armv6-m\libcr_nohost.a(_cr__main.o)
 .data          0x00000000        0x0 c:/nxp/lpcxpresso_7.5.0_254/lpcxpresso/tools/bin/../lib/gcc/arm-none-eabi/4.8.4/../../../../arm-none-eabi/lib/armv6-m\libcr_nohost.a(_cr__main.o)
 .bss           0x00000000        0x0 c:/nxp/lpcxpresso_7.5.0_254/lpcxpresso/tools/bin/../lib/gcc/arm-none-eabi/4.8.4/../../../../arm-none-eabi/lib/armv6-m\libcr_nohost.a(_cr__main.o)
 .text          0x00000000        0x0 c:/nxp/lpcxpresso_7.5.0_254/lpcxpresso/tools/bin/../lib/gcc/arm-none-eabi/4.8.4/../../../../arm-none-eabi/lib/armv6-m\libcr_c.a(memcpy.o)
 .data          0x00000000        0x0 c:/nxp/lpcxpresso_7.5.0_254/lpcxpresso/tools/bin/../lib/gcc/arm-none-eabi/4.8.4/../../../../arm-none-eabi/lib/armv6-m\libcr_c.a(memcpy.o)
 .bss           0x00000000        0x0 c:/nxp/lpcxpresso_7.5.0_254/lpcxpresso/tools/bin/../lib/gcc/arm-none-eabi/4.8.4/../../../../arm-none-eabi/lib/armv6-m\libcr_c.a(memcpy.o)
 .text          0x00000000        0x0 c:/nxp/lpcxpresso_7.5.0_254/lpcxpresso/tools/bin/../lib/gcc/arm-none-eabi/4.8.4/../../../../arm-none-eabi/lib/armv6-m\libcr_c.a(memset.o)
 .data          0x00000000        0x0 c:/nxp/lpcxpresso_7.5.0_254/lpcxpresso/tools/bin/../lib/gcc/arm-none-eabi/4.8.4/../../../../arm-none-eabi/lib/armv6-m\libcr_c.a(memset.o)
 .bss           0x00000000        0x0 c:/nxp/lpcxpresso_7.5.0_254/lpcxpresso/tools/bin/../lib/gcc/arm-none-eabi/4.8.4/../../../../arm-none-eabi/lib/armv6-m\libcr_c.a(memset.o)
 .text          0x00000000        0x0 c:/nxp/lpcxpresso_7.5.0_254/lpcxpresso/tools/bin/../lib/gcc/arm-none-eabi/4.8.4/../../../../arm-none-eabi/lib/armv6-m\libcr_c.a(alloc.o)
 .data          0x00000000        0x0 c:/nxp/lpcxpresso_7.5.0_254/lpcxpresso/tools/bin/../lib/gcc/arm-none-eabi/4.8.4/../../../../arm-none-eabi/lib/armv6-m\libcr_c.a(alloc.o)
 .bss           0x00000000        0x0 c:/nxp/lpcxpresso_7.5.0_254/lpcxpresso/tools/bin/../lib/gcc/arm-none-eabi/4.8.4/../../../../arm-none-eabi/lib/armv6-m\libcr_c.a(alloc.o)
 .text.calloc   0x00000000       0x50 c:/nxp/lpcxpresso_7.5.0_254/lpcxpresso/tools/bin/../lib/gcc/arm-none-eabi/4.8.4/../../../../arm-none-eabi/lib/armv6-m\libcr_c.a(alloc.o)
 .text.realloc  0x00000000       0x24 c:/nxp/lpcxpresso_7.5.0_254/lpcxpresso/tools/bin/../lib/gcc/arm-none-eabi/4.8.4/../../../../arm-none-eabi/lib/armv6-m\libcr_c.a(alloc.o)
 .text          0x00000000        0x0 c:/nxp/lpcxpresso_7.5.0_254/lpcxpresso/tools/bin/../lib/gcc/arm-none-eabi/4.8.4/../../../../arm-none-eabi/lib/armv6-m\libcr_c.a(ctype.o)
 .data          0x00000000        0x0 c:/nxp/lpcxpresso_7.5.0_254/lpcxpresso/tools/bin/../lib/gcc/arm-none-eabi/4.8.4/../../../../arm-none-eabi/lib/armv6-m\libcr_c.a(ctype.o)
 .bss           0x00000000        0x0 c:/nxp/lpcxpresso_7.5.0_254/lpcxpresso/tools/bin/../lib/gcc/arm-none-eabi/4.8.4/../../../../arm-none-eabi/lib/armv6-m\libcr_c.a(ctype.o)
 .text.isalnum  0x00000000       0x14 c:/nxp/lpcxpresso_7.5.0_254/lpcxpresso/tools/bin/../lib/gcc/arm-none-eabi/4.8.4/../../../../arm-none-eabi/lib/armv6-m\libcr_c.a(ctype.o)
 .text.iscntrl  0x00000000       0x14 c:/nxp/lpcxpresso_7.5.0_254/lpcxpresso/tools/bin/../lib/gcc/arm-none-eabi/4.8.4/../../../../arm-none-eabi/lib/armv6-m\libcr_c.a(ctype.o)
 .text.isgraph  0x00000000       0x14 c:/nxp/lpcxpresso_7.5.0_254/lpcxpresso/tools/bin/../lib/gcc/arm-none-eabi/4.8.4/../../../../arm-none-eabi/lib/armv6-m\libcr_c.a(ctype.o)
 .text.islower  0x00000000       0x14 c:/nxp/lpcxpresso_7.5.0_254/lpcxpresso/tools/bin/../lib/gcc/arm-none-eabi/4.8.4/../../../../arm-none-eabi/lib/armv6-m\libcr_c.a(ctype.o)
 .text.isprint  0x00000000       0x14 c:/nxp/lpcxpresso_7.5.0_254/lpcxpresso/tools/bin/../lib/gcc/arm-none-eabi/4.8.4/../../../../arm-none-eabi/lib/armv6-m\libcr_c.a(ctype.o)
 .text.ispunct  0x00000000       0x14 c:/nxp/lpcxpresso_7.5.0_254/lpcxpresso/tools/bin/../lib/gcc/arm-none-eabi/4.8.4/../../../../arm-none-eabi/lib/armv6-m\libcr_c.a(ctype.o)
 .text.isspace  0x00000000       0x14 c:/nxp/lpcxpresso_7.5.0_254/lpcxpresso/tools/bin/../lib/gcc/arm-none-eabi/4.8.4/../../../../arm-none-eabi/lib/armv6-m\libcr_c.a(ctype.o)
 .text.isupper  0x00000000       0x14 c:/nxp/lpcxpresso_7.5.0_254/lpcxpresso/tools/bin/../lib/gcc/arm-none-eabi/4.8.4/../../../../arm-none-eabi/lib/armv6-m\libcr_c.a(ctype.o)
 .text.tolower  0x00000000       0x14 c:/nxp/lpcxpresso_7.5.0_254/lpcxpresso/tools/bin/../lib/gcc/arm-none-eabi/4.8.4/../../../../arm-none-eabi/lib/armv6-m\libcr_c.a(ctype.o)
 .text          0x00000000        0x0 c:/nxp/lpcxpresso_7.5.0_254/lpcxpresso/tools/bin/../lib/gcc/arm-none-eabi/4.8.4/../../../../arm-none-eabi/lib/armv6-m\libcr_c.a(fpprintf.o)
 .data          0x00000000        0x0 c:/nxp/lpcxpresso_7.5.0_254/lpcxpresso/tools/bin/../lib/gcc/arm-none-eabi/4.8.4/../../../../arm-none-eabi/lib/armv6-m\libcr_c.a(fpprintf.o)
 .bss           0x00000000        0x0 c:/nxp/lpcxpresso_7.5.0_254/lpcxpresso/tools/bin/../lib/gcc/arm-none-eabi/4.8.4/../../../../arm-none-eabi/lib/armv6-m\libcr_c.a(fpprintf.o)
 .text.fprintf  0x00000000       0x38 c:/nxp/lpcxpresso_7.5.0_254/lpcxpresso/tools/bin/../lib/gcc/arm-none-eabi/4.8.4/../../../../arm-none-eabi/lib/armv6-m\libcr_c.a(fpprintf.o)
 .text.printf_char
                0x00000000       0x38 c:/nxp/lpcxpresso_7.5.0_254/lpcxpresso/tools/bin/../lib/gcc/arm-none-eabi/4.8.4/../../../../arm-none-eabi/lib/armv6-m\libcr_c.a(fpprintf.o)
 .text.snprintf
                0x00000000       0x6c c:/nxp/lpcxpresso_7.5.0_254/lpcxpresso/tools/bin/../lib/gcc/arm-none-eabi/4.8.4/../../../../arm-none-eabi/lib/armv6-m\libcr_c.a(fpprintf.o)
 .text.vfprintf
                0x00000000       0x28 c:/nxp/lpcxpresso_7.5.0_254/lpcxpresso/tools/bin/../lib/gcc/arm-none-eabi/4.8.4/../../../../arm-none-eabi/lib/armv6-m\libcr_c.a(fpprintf.o)
 .text.vprintf  0x00000000       0x28 c:/nxp/lpcxpresso_7.5.0_254/lpcxpresso/tools/bin/../lib/gcc/arm-none-eabi/4.8.4/../../../../arm-none-eabi/lib/armv6-m\libcr_c.a(fpprintf.o)
 .text.vsprintf
                0x00000000       0x68 c:/nxp/lpcxpresso_7.5.0_254/lpcxpresso/tools/bin/../lib/gcc/arm-none-eabi/4.8.4/../../../../arm-none-eabi/lib/armv6-m\libcr_c.a(fpprintf.o)
 .text          0x00000000        0x0 c:/nxp/lpcxpresso_7.5.0_254/lpcxpresso/tools/bin/../lib/gcc/arm-none-eabi/4.8.4/../../../../arm-none-eabi/lib/armv6-m\libcr_c.a(initio.o)
 .data          0x00000000        0x0 c:/nxp/lpcxpresso_7.5.0_254/lpcxpresso/tools/bin/../lib/gcc/arm-none-eabi/4.8.4/../../../../arm-none-eabi/lib/armv6-m\libcr_c.a(initio.o)
 .bss           0x00000000        0x0 c:/nxp/lpcxpresso_7.5.0_254/lpcxpresso/tools/bin/../lib/gcc/arm-none-eabi/4.8.4/../../../../arm-none-eabi/lib/armv6-m\libcr_c.a(initio.o)
 .text._terminateio
                0x00000000       0x3c c:/nxp/lpcxpresso_7.5.0_254/lpcxpresso/tools/bin/../lib/gcc/arm-none-eabi/4.8.4/../../../../arm-none-eabi/lib/armv6-m\libcr_c.a(initio.o)
 .text          0x00000000        0x0 c:/nxp/lpcxpresso_7.5.0_254/lpcxpresso/tools/bin/../lib/gcc/arm-none-eabi/4.8.4/../../../../arm-none-eabi/lib/armv6-m\libcr_c.a(memcmp.o)
 .data          0x00000000        0x0 c:/nxp/lpcxpresso_7.5.0_254/lpcxpresso/tools/bin/../lib/gcc/arm-none-eabi/4.8.4/../../../../arm-none-eabi/lib/armv6-m\libcr_c.a(memcmp.o)
 .bss           0x00000000        0x0 c:/nxp/lpcxpresso_7.5.0_254/lpcxpresso/tools/bin/../lib/gcc/arm-none-eabi/4.8.4/../../../../arm-none-eabi/lib/armv6-m\libcr_c.a(memcmp.o)
 .text          0x00000000        0x0 c:/nxp/lpcxpresso_7.5.0_254/lpcxpresso/tools/bin/../lib/gcc/arm-none-eabi/4.8.4/../../../../arm-none-eabi/lib/armv6-m\libcr_c.a(printf.o)
 .data          0x00000000        0x0 c:/nxp/lpcxpresso_7.5.0_254/lpcxpresso/tools/bin/../lib/gcc/arm-none-eabi/4.8.4/../../../../arm-none-eabi/lib/armv6-m\libcr_c.a(printf.o)
 .bss           0x00000000        0x0 c:/nxp/lpcxpresso_7.5.0_254/lpcxpresso/tools/bin/../lib/gcc/arm-none-eabi/4.8.4/../../../../arm-none-eabi/lib/armv6-m\libcr_c.a(printf.o)
 .text.no_fp_display
                0x00000000        0x4 c:/nxp/lpcxpresso_7.5.0_254/lpcxpresso/tools/bin/../lib/gcc/arm-none-eabi/4.8.4/../../../../arm-none-eabi/lib/armv6-m\libcr_c.a(printf.o)
 .text._fprintf
                0x00000000       0x38 c:/nxp/lpcxpresso_7.5.0_254/lpcxpresso/tools/bin/../lib/gcc/arm-none-eabi/4.8.4/../../../../arm-none-eabi/lib/armv6-m\libcr_c.a(printf.o)
 .text._printf_char
                0x00000000       0x38 c:/nxp/lpcxpresso_7.5.0_254/lpcxpresso/tools/bin/../lib/gcc/arm-none-eabi/4.8.4/../../../../arm-none-eabi/lib/armv6-m\libcr_c.a(printf.o)
 .text._sprintf
                0x00000000       0x70 c:/nxp/lpcxpresso_7.5.0_254/lpcxpresso/tools/bin/../lib/gcc/arm-none-eabi/4.8.4/../../../../arm-none-eabi/lib/armv6-m\libcr_c.a(printf.o)
 .text._snprintf
                0x00000000       0x6c c:/nxp/lpcxpresso_7.5.0_254/lpcxpresso/tools/bin/../lib/gcc/arm-none-eabi/4.8.4/../../../../arm-none-eabi/lib/armv6-m\libcr_c.a(printf.o)
 .text._vfprintf
                0x00000000       0x28 c:/nxp/lpcxpresso_7.5.0_254/lpcxpresso/tools/bin/../lib/gcc/arm-none-eabi/4.8.4/../../../../arm-none-eabi/lib/armv6-m\libcr_c.a(printf.o)
 .text._vprintf
                0x00000000       0x28 c:/nxp/lpcxpresso_7.5.0_254/lpcxpresso/tools/bin/../lib/gcc/arm-none-eabi/4.8.4/../../../../arm-none-eabi/lib/armv6-m\libcr_c.a(printf.o)
 .text._vsprintf
                0x00000000       0x68 c:/nxp/lpcxpresso_7.5.0_254/lpcxpresso/tools/bin/../lib/gcc/arm-none-eabi/4.8.4/../../../../arm-none-eabi/lib/armv6-m\libcr_c.a(printf.o)
 .text._vsnprintf
                0x00000000       0x5c c:/nxp/lpcxpresso_7.5.0_254/lpcxpresso/tools/bin/../lib/gcc/arm-none-eabi/4.8.4/../../../../arm-none-eabi/lib/armv6-m\libcr_c.a(printf.o)
 .text._printf  0x00000000       0x50 c:/nxp/lpcxpresso_7.5.0_254/lpcxpresso/tools/bin/../lib/gcc/arm-none-eabi/4.8.4/../../../../arm-none-eabi/lib/armv6-m\libcr_c.a(printf.o)
 .text          0x00000000        0x0 c:/nxp/lpcxpresso_7.5.0_254/lpcxpresso/tools/bin/../lib/gcc/arm-none-eabi/4.8.4/../../../../arm-none-eabi/lib/armv6-m\libcr_c.a(scanf.o)
 .data          0x00000000        0x0 c:/nxp/lpcxpresso_7.5.0_254/lpcxpresso/tools/bin/../lib/gcc/arm-none-eabi/4.8.4/../../../../arm-none-eabi/lib/armv6-m\libcr_c.a(scanf.o)
 .bss           0x00000000        0x0 c:/nxp/lpcxpresso_7.5.0_254/lpcxpresso/tools/bin/../lib/gcc/arm-none-eabi/4.8.4/../../../../arm-none-eabi/lib/armv6-m\libcr_c.a(scanf.o)
 .text.cr_rd_int
                0x00000000      0x1f0 c:/nxp/lpcxpresso_7.5.0_254/lpcxpresso/tools/bin/../lib/gcc/arm-none-eabi/4.8.4/../../../../arm-none-eabi/lib/armv6-m\libcr_c.a(scanf.o)
 .text.vfscanf  0x00000000      0x980 c:/nxp/lpcxpresso_7.5.0_254/lpcxpresso/tools/bin/../lib/gcc/arm-none-eabi/4.8.4/../../../../arm-none-eabi/lib/armv6-m\libcr_c.a(scanf.o)
 .text._ncc_vfscanf
                0x00000000        0x8 c:/nxp/lpcxpresso_7.5.0_254/lpcxpresso/tools/bin/../lib/gcc/arm-none-eabi/4.8.4/../../../../arm-none-eabi/lib/armv6-m\libcr_c.a(scanf.o)
 .text.fscanf   0x00000000       0x18 c:/nxp/lpcxpresso_7.5.0_254/lpcxpresso/tools/bin/../lib/gcc/arm-none-eabi/4.8.4/../../../../arm-none-eabi/lib/armv6-m\libcr_c.a(scanf.o)
 .text.scanf    0x00000000       0x20 c:/nxp/lpcxpresso_7.5.0_254/lpcxpresso/tools/bin/../lib/gcc/arm-none-eabi/4.8.4/../../../../arm-none-eabi/lib/armv6-m\libcr_c.a(scanf.o)
 .text.sscanf   0x00000000       0x4a c:/nxp/lpcxpresso_7.5.0_254/lpcxpresso/tools/bin/../lib/gcc/arm-none-eabi/4.8.4/../../../../arm-none-eabi/lib/armv6-m\libcr_c.a(scanf.o)
 .text.strtod   0x00000000       0x48 c:/nxp/lpcxpresso_7.5.0_254/lpcxpresso/tools/bin/../lib/gcc/arm-none-eabi/4.8.4/../../../../arm-none-eabi/lib/armv6-m\libcr_c.a(scanf.o)
 .text.strtof   0x00000000        0xc c:/nxp/lpcxpresso_7.5.0_254/lpcxpresso/tools/bin/../lib/gcc/arm-none-eabi/4.8.4/../../../../arm-none-eabi/lib/armv6-m\libcr_c.a(scanf.o)
 .text.strtoul  0x00000000       0x84 c:/nxp/lpcxpresso_7.5.0_254/lpcxpresso/tools/bin/../lib/gcc/arm-none-eabi/4.8.4/../../../../arm-none-eabi/lib/armv6-m\libcr_c.a(scanf.o)
 .text.atof     0x00000000       0x14 c:/nxp/lpcxpresso_7.5.0_254/lpcxpresso/tools/bin/../lib/gcc/arm-none-eabi/4.8.4/../../../../arm-none-eabi/lib/armv6-m\libcr_c.a(scanf.o)
 .text.atol     0x00000000       0x18 c:/nxp/lpcxpresso_7.5.0_254/lpcxpresso/tools/bin/../lib/gcc/arm-none-eabi/4.8.4/../../../../arm-none-eabi/lib/armv6-m\libcr_c.a(scanf.o)
 .rodata.str1.1
                0x00000000        0x6 c:/nxp/lpcxpresso_7.5.0_254/lpcxpresso/tools/bin/../lib/gcc/arm-none-eabi/4.8.4/../../../../arm-none-eabi/lib/armv6-m\libcr_c.a(scanf.o)
 .data.neginf.4355
                0x00000000        0x4 c:/nxp/lpcxpresso_7.5.0_254/lpcxpresso/tools/bin/../lib/gcc/arm-none-eabi/4.8.4/../../../../arm-none-eabi/lib/armv6-m\libcr_c.a(scanf.o)
 .data.posinf.4354
                0x00000000        0x4 c:/nxp/lpcxpresso_7.5.0_254/lpcxpresso/tools/bin/../lib/gcc/arm-none-eabi/4.8.4/../../../../arm-none-eabi/lib/armv6-m\libcr_c.a(scanf.o)
 .text          0x00000000        0x0 c:/nxp/lpcxpresso_7.5.0_254/lpcxpresso/tools/bin/../lib/gcc/arm-none-eabi/4.8.4/../../../../arm-none-eabi/lib/armv6-m\libcr_c.a(setvbuf.o)
 .data          0x00000000        0x0 c:/nxp/lpcxpresso_7.5.0_254/lpcxpresso/tools/bin/../lib/gcc/arm-none-eabi/4.8.4/../../../../arm-none-eabi/lib/armv6-m\libcr_c.a(setvbuf.o)
 .bss           0x00000000        0x0 c:/nxp/lpcxpresso_7.5.0_254/lpcxpresso/tools/bin/../lib/gcc/arm-none-eabi/4.8.4/../../../../arm-none-eabi/lib/armv6-m\libcr_c.a(setvbuf.o)
 .text          0x00000000        0x0 c:/nxp/lpcxpresso_7.5.0_254/lpcxpresso/tools/bin/../lib/gcc/arm-none-eabi/4.8.4/../../../../arm-none-eabi/lib/armv6-m\libcr_c.a(stdio.o)
 .data          0x00000000        0x0 c:/nxp/lpcxpresso_7.5.0_254/lpcxpresso/tools/bin/../lib/gcc/arm-none-eabi/4.8.4/../../../../arm-none-eabi/lib/armv6-m\libcr_c.a(stdio.o)
 .bss           0x00000000        0x0 c:/nxp/lpcxpresso_7.5.0_254/lpcxpresso/tools/bin/../lib/gcc/arm-none-eabi/4.8.4/../../../../arm-none-eabi/lib/armv6-m\libcr_c.a(stdio.o)
 .text.fgetc    0x00000000       0x1c c:/nxp/lpcxpresso_7.5.0_254/lpcxpresso/tools/bin/../lib/gcc/arm-none-eabi/4.8.4/../../../../arm-none-eabi/lib/armv6-m\libcr_c.a(stdio.o)
 .text.fputc    0x00000000       0x1e c:/nxp/lpcxpresso_7.5.0_254/lpcxpresso/tools/bin/../lib/gcc/arm-none-eabi/4.8.4/../../../../arm-none-eabi/lib/armv6-m\libcr_c.a(stdio.o)
 .text.getc     0x00000000       0x1c c:/nxp/lpcxpresso_7.5.0_254/lpcxpresso/tools/bin/../lib/gcc/arm-none-eabi/4.8.4/../../../../arm-none-eabi/lib/armv6-m\libcr_c.a(stdio.o)
 .text.getchar  0x00000000       0x24 c:/nxp/lpcxpresso_7.5.0_254/lpcxpresso/tools/bin/../lib/gcc/arm-none-eabi/4.8.4/../../../../arm-none-eabi/lib/armv6-m\libcr_c.a(stdio.o)
 .text.putc     0x00000000       0x1e c:/nxp/lpcxpresso_7.5.0_254/lpcxpresso/tools/bin/../lib/gcc/arm-none-eabi/4.8.4/../../../../arm-none-eabi/lib/armv6-m\libcr_c.a(stdio.o)
 .text.putchar  0x00000000       0x28 c:/nxp/lpcxpresso_7.5.0_254/lpcxpresso/tools/bin/../lib/gcc/arm-none-eabi/4.8.4/../../../../arm-none-eabi/lib/armv6-m\libcr_c.a(stdio.o)
 .text.feof     0x00000000        0x8 c:/nxp/lpcxpresso_7.5.0_254/lpcxpresso/tools/bin/../lib/gcc/arm-none-eabi/4.8.4/../../../../arm-none-eabi/lib/armv6-m\libcr_c.a(stdio.o)
 .text.ferror   0x00000000        0x8 c:/nxp/lpcxpresso_7.5.0_254/lpcxpresso/tools/bin/../lib/gcc/arm-none-eabi/4.8.4/../../../../arm-none-eabi/lib/armv6-m\libcr_c.a(stdio.o)
 .text.clearerr
                0x00000000       0x10 c:/nxp/lpcxpresso_7.5.0_254/lpcxpresso/tools/bin/../lib/gcc/arm-none-eabi/4.8.4/../../../../arm-none-eabi/lib/armv6-m\libcr_c.a(stdio.o)
 .text          0x00000000        0x0 c:/nxp/lpcxpresso_7.5.0_254/lpcxpresso/tools/bin/../lib/gcc/arm-none-eabi/4.8.4/../../../../arm-none-eabi/lib/armv6-m\libcr_c.a(strcat.o)
 .data          0x00000000        0x0 c:/nxp/lpcxpresso_7.5.0_254/lpcxpresso/tools/bin/../lib/gcc/arm-none-eabi/4.8.4/../../../../arm-none-eabi/lib/armv6-m\libcr_c.a(strcat.o)
 .bss           0x00000000        0x0 c:/nxp/lpcxpresso_7.5.0_254/lpcxpresso/tools/bin/../lib/gcc/arm-none-eabi/4.8.4/../../../../arm-none-eabi/lib/armv6-m\libcr_c.a(strcat.o)
 .text.strcat   0x00000000       0x1a c:/nxp/lpcxpresso_7.5.0_254/lpcxpresso/tools/bin/../lib/gcc/arm-none-eabi/4.8.4/../../../../arm-none-eabi/lib/armv6-m\libcr_c.a(strcat.o)
 .comment       0x00000000       0x71 c:/nxp/lpcxpresso_7.5.0_254/lpcxpresso/tools/bin/../lib/gcc/arm-none-eabi/4.8.4/../../../../arm-none-eabi/lib/armv6-m\libcr_c.a(strcat.o)
 .ARM.attributes
                0x00000000       0x31 c:/nxp/lpcxpresso_7.5.0_254/lpcxpresso/tools/bin/../lib/gcc/arm-none-eabi/4.8.4/../../../../arm-none-eabi/lib/armv6-m\libcr_c.a(strcat.o)
 .text          0x00000000        0x0 c:/nxp/lpcxpresso_7.5.0_254/lpcxpresso/tools/bin/../lib/gcc/arm-none-eabi/4.8.4/../../../../arm-none-eabi/lib/armv6-m\libcr_c.a(strchr.o)
 .data          0x00000000        0x0 c:/nxp/lpcxpresso_7.5.0_254/lpcxpresso/tools/bin/../lib/gcc/arm-none-eabi/4.8.4/../../../../arm-none-eabi/lib/armv6-m\libcr_c.a(strchr.o)
 .bss           0x00000000        0x0 c:/nxp/lpcxpresso_7.5.0_254/lpcxpresso/tools/bin/../lib/gcc/arm-none-eabi/4.8.4/../../../../arm-none-eabi/lib/armv6-m\libcr_c.a(strchr.o)
 .text          0x00000000        0x0 c:/nxp/lpcxpresso_7.5.0_254/lpcxpresso/tools/bin/../lib/gcc/arm-none-eabi/4.8.4/../../../../arm-none-eabi/lib/armv6-m\libcr_c.a(strcmp.o)
 .data          0x00000000        0x0 c:/nxp/lpcxpresso_7.5.0_254/lpcxpresso/tools/bin/../lib/gcc/arm-none-eabi/4.8.4/../../../../arm-none-eabi/lib/armv6-m\libcr_c.a(strcmp.o)
 .bss           0x00000000        0x0 c:/nxp/lpcxpresso_7.5.0_254/lpcxpresso/tools/bin/../lib/gcc/arm-none-eabi/4.8.4/../../../../arm-none-eabi/lib/armv6-m\libcr_c.a(strcmp.o)
 .text          0x00000000        0x0 c:/nxp/lpcxpresso_7.5.0_254/lpcxpresso/tools/bin/../lib/gcc/arm-none-eabi/4.8.4/../../../../arm-none-eabi/lib/armv6-m\libcr_c.a(strcpy.o)
 .data          0x00000000        0x0 c:/nxp/lpcxpresso_7.5.0_254/lpcxpresso/tools/bin/../lib/gcc/arm-none-eabi/4.8.4/../../../../arm-none-eabi/lib/armv6-m\libcr_c.a(strcpy.o)
 .bss           0x00000000        0x0 c:/nxp/lpcxpresso_7.5.0_254/lpcxpresso/tools/bin/../lib/gcc/arm-none-eabi/4.8.4/../../../../arm-none-eabi/lib/armv6-m\libcr_c.a(strcpy.o)
 .text          0x00000000        0x0 c:/nxp/lpcxpresso_7.5.0_254/lpcxpresso/tools/bin/../lib/gcc/arm-none-eabi/4.8.4/../../../../arm-none-eabi/lib/armv6-m\libcr_c.a(strlen.o)
 .data          0x00000000        0x0 c:/nxp/lpcxpresso_7.5.0_254/lpcxpresso/tools/bin/../lib/gcc/arm-none-eabi/4.8.4/../../../../arm-none-eabi/lib/armv6-m\libcr_c.a(strlen.o)
 .bss           0x00000000        0x0 c:/nxp/lpcxpresso_7.5.0_254/lpcxpresso/tools/bin/../lib/gcc/arm-none-eabi/4.8.4/../../../../arm-none-eabi/lib/armv6-m\libcr_c.a(strlen.o)
 .text          0x00000000        0x0 c:/nxp/lpcxpresso_7.5.0_254/lpcxpresso/tools/bin/../lib/gcc/arm-none-eabi/4.8.4/../../../../arm-none-eabi/lib/armv6-m\libcr_c.a(strncmp.o)
 .data          0x00000000        0x0 c:/nxp/lpcxpresso_7.5.0_254/lpcxpresso/tools/bin/../lib/gcc/arm-none-eabi/4.8.4/../../../../arm-none-eabi/lib/armv6-m\libcr_c.a(strncmp.o)
 .bss           0x00000000        0x0 c:/nxp/lpcxpresso_7.5.0_254/lpcxpresso/tools/bin/../lib/gcc/arm-none-eabi/4.8.4/../../../../arm-none-eabi/lib/armv6-m\libcr_c.a(strncmp.o)
 .text.strncmp  0x00000000       0x54 c:/nxp/lpcxpresso_7.5.0_254/lpcxpresso/tools/bin/../lib/gcc/arm-none-eabi/4.8.4/../../../../arm-none-eabi/lib/armv6-m\libcr_c.a(strncmp.o)
 .comment       0x00000000       0x71 c:/nxp/lpcxpresso_7.5.0_254/lpcxpresso/tools/bin/../lib/gcc/arm-none-eabi/4.8.4/../../../../arm-none-eabi/lib/armv6-m\libcr_c.a(strncmp.o)
 .ARM.attributes
                0x00000000       0x31 c:/nxp/lpcxpresso_7.5.0_254/lpcxpresso/tools/bin/../lib/gcc/arm-none-eabi/4.8.4/../../../../arm-none-eabi/lib/armv6-m\libcr_c.a(strncmp.o)
 .text          0x00000000        0x0 c:/nxp/lpcxpresso_7.5.0_254/lpcxpresso/tools/bin/../lib/gcc/arm-none-eabi/4.8.4/../../../../arm-none-eabi/lib/armv6-m\libcr_c.a(strncpy.o)
 .data          0x00000000        0x0 c:/nxp/lpcxpresso_7.5.0_254/lpcxpresso/tools/bin/../lib/gcc/arm-none-eabi/4.8.4/../../../../arm-none-eabi/lib/armv6-m\libcr_c.a(strncpy.o)
 .bss           0x00000000        0x0 c:/nxp/lpcxpresso_7.5.0_254/lpcxpresso/tools/bin/../lib/gcc/arm-none-eabi/4.8.4/../../../../arm-none-eabi/lib/armv6-m\libcr_c.a(strncpy.o)
 .text          0x00000000        0x0 c:/nxp/lpcxpresso_7.5.0_254/lpcxpresso/tools/bin/../lib/gcc/arm-none-eabi/4.8.4/../../../../arm-none-eabi/lib/armv6-m\libcr_c.a(strrchr.o)
 .data          0x00000000        0x0 c:/nxp/lpcxpresso_7.5.0_254/lpcxpresso/tools/bin/../lib/gcc/arm-none-eabi/4.8.4/../../../../arm-none-eabi/lib/armv6-m\libcr_c.a(strrchr.o)
 .bss           0x00000000        0x0 c:/nxp/lpcxpresso_7.5.0_254/lpcxpresso/tools/bin/../lib/gcc/arm-none-eabi/4.8.4/../../../../arm-none-eabi/lib/armv6-m\libcr_c.a(strrchr.o)
 .text.strrchr  0x00000000       0x24 c:/nxp/lpcxpresso_7.5.0_254/lpcxpresso/tools/bin/../lib/gcc/arm-none-eabi/4.8.4/../../../../arm-none-eabi/lib/armv6-m\libcr_c.a(strrchr.o)
 .comment       0x00000000       0x71 c:/nxp/lpcxpresso_7.5.0_254/lpcxpresso/tools/bin/../lib/gcc/arm-none-eabi/4.8.4/../../../../arm-none-eabi/lib/armv6-m\libcr_c.a(strrchr.o)
 .ARM.attributes
                0x00000000       0x31 c:/nxp/lpcxpresso_7.5.0_254/lpcxpresso/tools/bin/../lib/gcc/arm-none-eabi/4.8.4/../../../../arm-none-eabi/lib/armv6-m\libcr_c.a(strrchr.o)
 .text          0x00000000        0x0 c:/nxp/lpcxpresso_7.5.0_254/lpcxpresso/tools/bin/../lib/gcc/arm-none-eabi/4.8.4/../../../../arm-none-eabi/lib/armv6-m\libcr_c.a(strstr.o)
 .data          0x00000000        0x0 c:/nxp/lpcxpresso_7.5.0_254/lpcxpresso/tools/bin/../lib/gcc/arm-none-eabi/4.8.4/../../../../arm-none-eabi/lib/armv6-m\libcr_c.a(strstr.o)
 .bss           0x00000000        0x0 c:/nxp/lpcxpresso_7.5.0_254/lpcxpresso/tools/bin/../lib/gcc/arm-none-eabi/4.8.4/../../../../arm-none-eabi/lib/armv6-m\libcr_c.a(strstr.o)
 .text.strstr   0x00000000       0x22 c:/nxp/lpcxpresso_7.5.0_254/lpcxpresso/tools/bin/../lib/gcc/arm-none-eabi/4.8.4/../../../../arm-none-eabi/lib/armv6-m\libcr_c.a(strstr.o)
 .comment       0x00000000       0x71 c:/nxp/lpcxpresso_7.5.0_254/lpcxpresso/tools/bin/../lib/gcc/arm-none-eabi/4.8.4/../../../../arm-none-eabi/lib/armv6-m\libcr_c.a(strstr.o)
 .ARM.attributes
                0x00000000       0x31 c:/nxp/lpcxpresso_7.5.0_254/lpcxpresso/tools/bin/../lib/gcc/arm-none-eabi/4.8.4/../../../../arm-none-eabi/lib/armv6-m\libcr_c.a(strstr.o)
 .text          0x00000000        0x0 c:/nxp/lpcxpresso_7.5.0_254/lpcxpresso/tools/bin/../lib/gcc/arm-none-eabi/4.8.4/../../../../arm-none-eabi/lib/armv6-m\libcr_c.a(strtok.o)
 .data          0x00000000        0x0 c:/nxp/lpcxpresso_7.5.0_254/lpcxpresso/tools/bin/../lib/gcc/arm-none-eabi/4.8.4/../../../../arm-none-eabi/lib/armv6-m\libcr_c.a(strtok.o)
 .bss           0x00000000        0x0 c:/nxp/lpcxpresso_7.5.0_254/lpcxpresso/tools/bin/../lib/gcc/arm-none-eabi/4.8.4/../../../../arm-none-eabi/lib/armv6-m\libcr_c.a(strtok.o)
 .text          0x00000000        0x0 c:/nxp/lpcxpresso_7.5.0_254/lpcxpresso/tools/bin/../lib/gcc/arm-none-eabi/4.8.4/../../../../arm-none-eabi/lib/armv6-m\libcr_c.a(ungetc.o)
 .data          0x00000000        0x0 c:/nxp/lpcxpresso_7.5.0_254/lpcxpresso/tools/bin/../lib/gcc/arm-none-eabi/4.8.4/../../../../arm-none-eabi/lib/armv6-m\libcr_c.a(ungetc.o)
 .bss           0x00000000        0x0 c:/nxp/lpcxpresso_7.5.0_254/lpcxpresso/tools/bin/../lib/gcc/arm-none-eabi/4.8.4/../../../../arm-none-eabi/lib/armv6-m\libcr_c.a(ungetc.o)
 .text.ungetc   0x00000000       0x3c c:/nxp/lpcxpresso_7.5.0_254/lpcxpresso/tools/bin/../lib/gcc/arm-none-eabi/4.8.4/../../../../arm-none-eabi/lib/armv6-m\libcr_c.a(ungetc.o)
 .comment       0x00000000       0x71 c:/nxp/lpcxpresso_7.5.0_254/lpcxpresso/tools/bin/../lib/gcc/arm-none-eabi/4.8.4/../../../../arm-none-eabi/lib/armv6-m\libcr_c.a(ungetc.o)
 .ARM.attributes
                0x00000000       0x31 c:/nxp/lpcxpresso_7.5.0_254/lpcxpresso/tools/bin/../lib/gcc/arm-none-eabi/4.8.4/../../../../arm-none-eabi/lib/armv6-m\libcr_c.a(ungetc.o)
 .text          0x00000000        0x0 c:/nxp/lpcxpresso_7.5.0_254/lpcxpresso/tools/bin/../lib/gcc/arm-none-eabi/4.8.4/../../../../arm-none-eabi/lib/armv6-m\libcr_c.a(__fillbuf.o)
 .data          0x00000000        0x0 c:/nxp/lpcxpresso_7.5.0_254/lpcxpresso/tools/bin/../lib/gcc/arm-none-eabi/4.8.4/../../../../arm-none-eabi/lib/armv6-m\libcr_c.a(__fillbuf.o)
 .bss           0x00000000        0x0 c:/nxp/lpcxpresso_7.5.0_254/lpcxpresso/tools/bin/../lib/gcc/arm-none-eabi/4.8.4/../../../../arm-none-eabi/lib/armv6-m\libcr_c.a(__fillbuf.o)
 .text._Csys_read_
                0x00000000       0x22 c:/nxp/lpcxpresso_7.5.0_254/lpcxpresso/tools/bin/../lib/gcc/arm-none-eabi/4.8.4/../../../../arm-none-eabi/lib/armv6-m\libcr_c.a(__fillbuf.o)
 .text.__filbuf
                0x00000000      0x188 c:/nxp/lpcxpresso_7.5.0_254/lpcxpresso/tools/bin/../lib/gcc/arm-none-eabi/4.8.4/../../../../arm-none-eabi/lib/armv6-m\libcr_c.a(__fillbuf.o)
 .text._fillb2  0x00000000       0x1c c:/nxp/lpcxpresso_7.5.0_254/lpcxpresso/tools/bin/../lib/gcc/arm-none-eabi/4.8.4/../../../../arm-none-eabi/lib/armv6-m\libcr_c.a(__fillbuf.o)
 .comment       0x00000000       0x71 c:/nxp/lpcxpresso_7.5.0_254/lpcxpresso/tools/bin/../lib/gcc/arm-none-eabi/4.8.4/../../../../arm-none-eabi/lib/armv6-m\libcr_c.a(__fillbuf.o)
 .ARM.attributes
                0x00000000       0x31 c:/nxp/lpcxpresso_7.5.0_254/lpcxpresso/tools/bin/../lib/gcc/arm-none-eabi/4.8.4/../../../../arm-none-eabi/lib/armv6-m\libcr_c.a(__fillbuf.o)
 .text          0x00000000        0x0 c:/nxp/lpcxpresso_7.5.0_254/lpcxpresso/tools/bin/../lib/gcc/arm-none-eabi/4.8.4/../../../../arm-none-eabi/lib/armv6-m\libcr_c.a(__init_alloc.o)
 .data          0x00000000        0x0 c:/nxp/lpcxpresso_7.5.0_254/lpcxpresso/tools/bin/../lib/gcc/arm-none-eabi/4.8.4/../../../../arm-none-eabi/lib/armv6-m\libcr_c.a(__init_alloc.o)
 .bss           0x00000000        0x0 c:/nxp/lpcxpresso_7.5.0_254/lpcxpresso/tools/bin/../lib/gcc/arm-none-eabi/4.8.4/../../../../arm-none-eabi/lib/armv6-m\libcr_c.a(__init_alloc.o)
 .text._init_alloc
                0x00000000       0x14 c:/nxp/lpcxpresso_7.5.0_254/lpcxpresso/tools/bin/../lib/gcc/arm-none-eabi/4.8.4/../../../../arm-none-eabi/lib/armv6-m\libcr_c.a(__init_alloc.o)
 .text          0x00000000        0x0 c:/nxp/lpcxpresso_7.5.0_254/lpcxpresso/tools/bin/../lib/gcc/arm-none-eabi/4.8.4/../../../../arm-none-eabi/lib/armv6-m\libcr_c.a(_cr_sbrk.o)
 .data          0x00000000        0x0 c:/nxp/lpcxpresso_7.5.0_254/lpcxpresso/tools/bin/../lib/gcc/arm-none-eabi/4.8.4/../../../../arm-none-eabi/lib/armv6-m\libcr_c.a(_cr_sbrk.o)
 .bss           0x00000000        0x0 c:/nxp/lpcxpresso_7.5.0_254/lpcxpresso/tools/bin/../lib/gcc/arm-none-eabi/4.8.4/../../../../arm-none-eabi/lib/armv6-m\libcr_c.a(_cr_sbrk.o)
 .text          0x00000000        0x0 c:/nxp/lpcxpresso_7.5.0_254/lpcxpresso/tools/bin/../lib/gcc/arm-none-eabi/4.8.4/../../../../arm-none-eabi/lib/armv6-m\libcr_c.a(_deferredlazyseek.o)
 .data          0x00000000        0x0 c:/nxp/lpcxpresso_7.5.0_254/lpcxpresso/tools/bin/../lib/gcc/arm-none-eabi/4.8.4/../../../../arm-none-eabi/lib/armv6-m\libcr_c.a(_deferredlazyseek.o)
 .bss           0x00000000        0x0 c:/nxp/lpcxpresso_7.5.0_254/lpcxpresso/tools/bin/../lib/gcc/arm-none-eabi/4.8.4/../../../../arm-none-eabi/lib/armv6-m\libcr_c.a(_deferredlazyseek.o)
 .text          0x00000000        0x0 c:/nxp/lpcxpresso_7.5.0_254/lpcxpresso/tools/bin/../lib/gcc/arm-none-eabi/4.8.4/../../../../arm-none-eabi/lib/armv6-m\libcr_c.a(_fdopen.o)
 .data          0x00000000        0x0 c:/nxp/lpcxpresso_7.5.0_254/lpcxpresso/tools/bin/../lib/gcc/arm-none-eabi/4.8.4/../../../../arm-none-eabi/lib/armv6-m\libcr_c.a(_fdopen.o)
 .bss           0x00000000        0x0 c:/nxp/lpcxpresso_7.5.0_254/lpcxpresso/tools/bin/../lib/gcc/arm-none-eabi/4.8.4/../../../../arm-none-eabi/lib/armv6-m\libcr_c.a(_fdopen.o)
 .text          0x00000000        0x0 c:/nxp/lpcxpresso_7.5.0_254/lpcxpresso/tools/bin/../lib/gcc/arm-none-eabi/4.8.4/../../../../arm-none-eabi/lib/armv6-m\libcr_c.a(_fflush.o)
 .data          0x00000000        0x0 c:/nxp/lpcxpresso_7.5.0_254/lpcxpresso/tools/bin/../lib/gcc/arm-none-eabi/4.8.4/../../../../arm-none-eabi/lib/armv6-m\libcr_c.a(_fflush.o)
 .bss           0x00000000        0x0 c:/nxp/lpcxpresso_7.5.0_254/lpcxpresso/tools/bin/../lib/gcc/arm-none-eabi/4.8.4/../../../../arm-none-eabi/lib/armv6-m\libcr_c.a(_fflush.o)
 .text          0x00000000        0x0 c:/nxp/lpcxpresso_7.5.0_254/lpcxpresso/tools/bin/../lib/gcc/arm-none-eabi/4.8.4/../../../../arm-none-eabi/lib/armv6-m\libcr_c.a(_frexpl.o)
 .data          0x00000000        0x0 c:/nxp/lpcxpresso_7.5.0_254/lpcxpresso/tools/bin/../lib/gcc/arm-none-eabi/4.8.4/../../../../arm-none-eabi/lib/armv6-m\libcr_c.a(_frexpl.o)
 .bss           0x00000000        0x0 c:/nxp/lpcxpresso_7.5.0_254/lpcxpresso/tools/bin/../lib/gcc/arm-none-eabi/4.8.4/../../../../arm-none-eabi/lib/armv6-m\libcr_c.a(_frexpl.o)
 .text          0x00000000        0x0 c:/nxp/lpcxpresso_7.5.0_254/lpcxpresso/tools/bin/../lib/gcc/arm-none-eabi/4.8.4/../../../../arm-none-eabi/lib/armv6-m\libcr_c.a(_hugeval.o)
 .data          0x00000000        0x0 c:/nxp/lpcxpresso_7.5.0_254/lpcxpresso/tools/bin/../lib/gcc/arm-none-eabi/4.8.4/../../../../arm-none-eabi/lib/armv6-m\libcr_c.a(_hugeval.o)
 .bss           0x00000000        0x0 c:/nxp/lpcxpresso_7.5.0_254/lpcxpresso/tools/bin/../lib/gcc/arm-none-eabi/4.8.4/../../../../arm-none-eabi/lib/armv6-m\libcr_c.a(_hugeval.o)
 .rodata.__huge_val
                0x00000000        0x8 c:/nxp/lpcxpresso_7.5.0_254/lpcxpresso/tools/bin/../lib/gcc/arm-none-eabi/4.8.4/../../../../arm-none-eabi/lib/armv6-m\libcr_c.a(_hugeval.o)
 .text          0x00000000        0x0 c:/nxp/lpcxpresso_7.5.0_254/lpcxpresso/tools/bin/../lib/gcc/arm-none-eabi/4.8.4/../../../../arm-none-eabi/lib/armv6-m\libcr_c.a(_ldexpl.o)
 .data          0x00000000        0x0 c:/nxp/lpcxpresso_7.5.0_254/lpcxpresso/tools/bin/../lib/gcc/arm-none-eabi/4.8.4/../../../../arm-none-eabi/lib/armv6-m\libcr_c.a(_ldexpl.o)
 .bss           0x00000000        0x0 c:/nxp/lpcxpresso_7.5.0_254/lpcxpresso/tools/bin/../lib/gcc/arm-none-eabi/4.8.4/../../../../arm-none-eabi/lib/armv6-m\libcr_c.a(_ldexpl.o)
 .text          0x00000000        0x0 c:/nxp/lpcxpresso_7.5.0_254/lpcxpresso/tools/bin/../lib/gcc/arm-none-eabi/4.8.4/../../../../arm-none-eabi/lib/armv6-m\libcr_c.a(_writebuf.o)
 .data          0x00000000        0x0 c:/nxp/lpcxpresso_7.5.0_254/lpcxpresso/tools/bin/../lib/gcc/arm-none-eabi/4.8.4/../../../../arm-none-eabi/lib/armv6-m\libcr_c.a(_writebuf.o)
 .bss           0x00000000        0x0 c:/nxp/lpcxpresso_7.5.0_254/lpcxpresso/tools/bin/../lib/gcc/arm-none-eabi/4.8.4/../../../../arm-none-eabi/lib/armv6-m\libcr_c.a(_writebuf.o)
 .text          0x00000000        0x0 c:/nxp/lpcxpresso_7.5.0_254/lpcxpresso/tools/bin/../lib/gcc/arm-none-eabi/4.8.4/../../../../arm-none-eabi/lib/armv6-m\libcr_c.a(errno.o)
 .data          0x00000000        0x0 c:/nxp/lpcxpresso_7.5.0_254/lpcxpresso/tools/bin/../lib/gcc/arm-none-eabi/4.8.4/../../../../arm-none-eabi/lib/armv6-m\libcr_c.a(errno.o)
 .bss           0x00000000        0x0 c:/nxp/lpcxpresso_7.5.0_254/lpcxpresso/tools/bin/../lib/gcc/arm-none-eabi/4.8.4/../../../../arm-none-eabi/lib/armv6-m\libcr_c.a(errno.o)
 .text          0x00000000        0x0 c:/nxp/lpcxpresso_7.5.0_254/lpcxpresso/tools/bin/../lib/gcc/arm-none-eabi/4.8.4/../../../../arm-none-eabi/lib/armv6-m\libcr_c.a(fclose.o)
 .data          0x00000000        0x0 c:/nxp/lpcxpresso_7.5.0_254/lpcxpresso/tools/bin/../lib/gcc/arm-none-eabi/4.8.4/../../../../arm-none-eabi/lib/armv6-m\libcr_c.a(fclose.o)
 .bss           0x00000000        0x0 c:/nxp/lpcxpresso_7.5.0_254/lpcxpresso/tools/bin/../lib/gcc/arm-none-eabi/4.8.4/../../../../arm-none-eabi/lib/armv6-m\libcr_c.a(fclose.o)
 .text          0x00000000        0x0 c:/nxp/lpcxpresso_7.5.0_254/lpcxpresso/tools/bin/../lib/gcc/arm-none-eabi/4.8.4/../../../../arm-none-eabi/lib/armv6-m\libcr_c.a(fflush.o)
 .data          0x00000000        0x0 c:/nxp/lpcxpresso_7.5.0_254/lpcxpresso/tools/bin/../lib/gcc/arm-none-eabi/4.8.4/../../../../arm-none-eabi/lib/armv6-m\libcr_c.a(fflush.o)
 .bss           0x00000000        0x0 c:/nxp/lpcxpresso_7.5.0_254/lpcxpresso/tools/bin/../lib/gcc/arm-none-eabi/4.8.4/../../../../arm-none-eabi/lib/armv6-m\libcr_c.a(fflush.o)
 .text          0x00000000        0x0 c:/nxp/lpcxpresso_7.5.0_254/lpcxpresso/tools/bin/../lib/gcc/arm-none-eabi/4.8.4/../../../../arm-none-eabi/lib/armv6-m\libcr_c.a(fseek.o)
 .data          0x00000000        0x0 c:/nxp/lpcxpresso_7.5.0_254/lpcxpresso/tools/bin/../lib/gcc/arm-none-eabi/4.8.4/../../../../arm-none-eabi/lib/armv6-m\libcr_c.a(fseek.o)
 .bss           0x00000000        0x0 c:/nxp/lpcxpresso_7.5.0_254/lpcxpresso/tools/bin/../lib/gcc/arm-none-eabi/4.8.4/../../../../arm-none-eabi/lib/armv6-m\libcr_c.a(fseek.o)
 .text          0x00000000        0x0 c:/nxp/lpcxpresso_7.5.0_254/lpcxpresso/tools/bin/../lib/gcc/arm-none-eabi/4.8.4/../../../../arm-none-eabi/lib/armv6-m\libcr_c.a(ftell.o)
 .data          0x00000000        0x0 c:/nxp/lpcxpresso_7.5.0_254/lpcxpresso/tools/bin/../lib/gcc/arm-none-eabi/4.8.4/../../../../arm-none-eabi/lib/armv6-m\libcr_c.a(ftell.o)
 .bss           0x00000000        0x0 c:/nxp/lpcxpresso_7.5.0_254/lpcxpresso/tools/bin/../lib/gcc/arm-none-eabi/4.8.4/../../../../arm-none-eabi/lib/armv6-m\libcr_c.a(ftell.o)
 .text          0x00000000        0x0 c:/nxp/lpcxpresso_7.5.0_254/lpcxpresso/tools/bin/../lib/gcc/arm-none-eabi/4.8.4/../../../../arm-none-eabi/lib/armv6-m\libcr_c.a(remove.o)
 .data          0x00000000        0x0 c:/nxp/lpcxpresso_7.5.0_254/lpcxpresso/tools/bin/../lib/gcc/arm-none-eabi/4.8.4/../../../../arm-none-eabi/lib/armv6-m\libcr_c.a(remove.o)
 .bss           0x00000000        0x0 c:/nxp/lpcxpresso_7.5.0_254/lpcxpresso/tools/bin/../lib/gcc/arm-none-eabi/4.8.4/../../../../arm-none-eabi/lib/armv6-m\libcr_c.a(remove.o)
 .text.rename   0x00000000       0x26 c:/nxp/lpcxpresso_7.5.0_254/lpcxpresso/tools/bin/../lib/gcc/arm-none-eabi/4.8.4/../../../../arm-none-eabi/lib/armv6-m\libcr_c.a(remove.o)
 .text          0x00000000        0x0 c:/nxp/lpcxpresso_7.5.0_254/lpcxpresso/tools/bin/../lib/gcc/arm-none-eabi/4.8.4/../../../../arm-none-eabi/lib/armv6-m\libcr_c.a(strcspn.o)
 .data          0x00000000        0x0 c:/nxp/lpcxpresso_7.5.0_254/lpcxpresso/tools/bin/../lib/gcc/arm-none-eabi/4.8.4/../../../../arm-none-eabi/lib/armv6-m\libcr_c.a(strcspn.o)
 .bss           0x00000000        0x0 c:/nxp/lpcxpresso_7.5.0_254/lpcxpresso/tools/bin/../lib/gcc/arm-none-eabi/4.8.4/../../../../arm-none-eabi/lib/armv6-m\libcr_c.a(strcspn.o)
 .text          0x00000000        0x0 c:/nxp/lpcxpresso_7.5.0_254/lpcxpresso/tools/bin/../lib/gcc/arm-none-eabi/4.8.4/../../../../arm-none-eabi/lib/armv6-m\libcr_c.a(strspn.o)
 .data          0x00000000        0x0 c:/nxp/lpcxpresso_7.5.0_254/lpcxpresso/tools/bin/../lib/gcc/arm-none-eabi/4.8.4/../../../../arm-none-eabi/lib/armv6-m\libcr_c.a(strspn.o)
 .bss           0x00000000        0x0 c:/nxp/lpcxpresso_7.5.0_254/lpcxpresso/tools/bin/../lib/gcc/arm-none-eabi/4.8.4/../../../../arm-none-eabi/lib/armv6-m\libcr_c.a(strspn.o)
 .text          0x00000000        0x0 c:/nxp/lpcxpresso_7.5.0_254/lpcxpresso/tools/bin/../lib/gcc/arm-none-eabi/4.8.4/../../../../arm-none-eabi/lib/armv6-m\libcr_c.a(_cr_check_heap.o)
 .data          0x00000000        0x0 c:/nxp/lpcxpresso_7.5.0_254/lpcxpresso/tools/bin/../lib/gcc/arm-none-eabi/4.8.4/../../../../arm-none-eabi/lib/armv6-m\libcr_c.a(_cr_check_heap.o)
 .bss           0x00000000        0x0 c:/nxp/lpcxpresso_7.5.0_254/lpcxpresso/tools/bin/../lib/gcc/arm-none-eabi/4.8.4/../../../../arm-none-eabi/lib/armv6-m\libcr_c.a(_cr_check_heap.o)
 .text          0x00000000        0x0 c:/nxp/lpcxpresso_7.5.0_254/lpcxpresso/tools/bin/../lib/gcc/arm-none-eabi/4.8.4/../../../../arm-none-eabi/lib/armv6-m\libcr_c.a(_do_fflush.o)
 .data          0x00000000        0x0 c:/nxp/lpcxpresso_7.5.0_254/lpcxpresso/tools/bin/../lib/gcc/arm-none-eabi/4.8.4/../../../../arm-none-eabi/lib/armv6-m\libcr_c.a(_do_fflush.o)
 .bss           0x00000000        0x0 c:/nxp/lpcxpresso_7.5.0_254/lpcxpresso/tools/bin/../lib/gcc/arm-none-eabi/4.8.4/../../../../arm-none-eabi/lib/armv6-m\libcr_c.a(_do_fflush.o)
 .text          0x00000000        0x0 c:/nxp/lpcxpresso_7.5.0_254/lpcxpresso/tools/bin/../lib/gcc/arm-none-eabi/4.8.4/armv6-m\libcr_eabihelpers.a(division_64.o)
 .data          0x00000000        0x0 c:/nxp/lpcxpresso_7.5.0_254/lpcxpresso/tools/bin/../lib/gcc/arm-none-eabi/4.8.4/armv6-m\libcr_eabihelpers.a(division_64.o)
 .bss           0x00000000        0x0 c:/nxp/lpcxpresso_7.5.0_254/lpcxpresso/tools/bin/../lib/gcc/arm-none-eabi/4.8.4/armv6-m\libcr_eabihelpers.a(division_64.o)
 .text.__aeabi_division_uldivmod
                0x00000000       0x5a c:/nxp/lpcxpresso_7.5.0_254/lpcxpresso/tools/bin/../lib/gcc/arm-none-eabi/4.8.4/armv6-m\libcr_eabihelpers.a(division_64.o)
 .text.__aeabi_division_ldivmod
                0x00000000       0x32 c:/nxp/lpcxpresso_7.5.0_254/lpcxpresso/tools/bin/../lib/gcc/arm-none-eabi/4.8.4/armv6-m\libcr_eabihelpers.a(division_64.o)
 .ARM.attributes
                0x00000000       0x21 c:/nxp/lpcxpresso_7.5.0_254/lpcxpresso/tools/bin/../lib/gcc/arm-none-eabi/4.8.4/armv6-m\libcr_eabihelpers.a(division_64.o)
 .text          0x00000000        0x0 c:/nxp/lpcxpresso_7.5.0_254/lpcxpresso/tools/bin/../lib/gcc/arm-none-eabi/4.8.4/armv6-m\libcr_eabihelpers.a(division_idiv0.o)
 .data          0x00000000        0x0 c:/nxp/lpcxpresso_7.5.0_254/lpcxpresso/tools/bin/../lib/gcc/arm-none-eabi/4.8.4/armv6-m\libcr_eabihelpers.a(division_idiv0.o)
 .bss           0x00000000        0x0 c:/nxp/lpcxpresso_7.5.0_254/lpcxpresso/tools/bin/../lib/gcc/arm-none-eabi/4.8.4/armv6-m\libcr_eabihelpers.a(division_idiv0.o)
 .text.__aeabi_division_idiv0
                0x00000000        0x2 c:/nxp/lpcxpresso_7.5.0_254/lpcxpresso/tools/bin/../lib/gcc/arm-none-eabi/4.8.4/armv6-m\libcr_eabihelpers.a(division_idiv0.o)
 .ARM.attributes
                0x00000000       0x21 c:/nxp/lpcxpresso_7.5.0_254/lpcxpresso/tools/bin/../lib/gcc/arm-none-eabi/4.8.4/armv6-m\libcr_eabihelpers.a(division_idiv0.o)
 .text          0x00000000        0x0 c:/nxp/lpcxpresso_7.5.0_254/lpcxpresso/tools/bin/../lib/gcc/arm-none-eabi/4.8.4/armv6-m\libcr_eabihelpers.a(double.o)
 .data          0x00000000        0x0 c:/nxp/lpcxpresso_7.5.0_254/lpcxpresso/tools/bin/../lib/gcc/arm-none-eabi/4.8.4/armv6-m\libcr_eabihelpers.a(double.o)
 .bss           0x00000000        0x0 c:/nxp/lpcxpresso_7.5.0_254/lpcxpresso/tools/bin/../lib/gcc/arm-none-eabi/4.8.4/armv6-m\libcr_eabihelpers.a(double.o)
 .text.__aeabi_drsub
                0x00000000       0x26 c:/nxp/lpcxpresso_7.5.0_254/lpcxpresso/tools/bin/../lib/gcc/arm-none-eabi/4.8.4/armv6-m\libcr_eabihelpers.a(double.o)
 .text.__aeabi_dneg
                0x00000000       0x10 c:/nxp/lpcxpresso_7.5.0_254/lpcxpresso/tools/bin/../lib/gcc/arm-none-eabi/4.8.4/armv6-m\libcr_eabihelpers.a(double.o)
 .text.__aeabi_d2f
                0x00000000       0x5c c:/nxp/lpcxpresso_7.5.0_254/lpcxpresso/tools/bin/../lib/gcc/arm-none-eabi/4.8.4/armv6-m\libcr_eabihelpers.a(double.o)
 .text.__aeabi_d2uiz
                0x00000000       0x38 c:/nxp/lpcxpresso_7.5.0_254/lpcxpresso/tools/bin/../lib/gcc/arm-none-eabi/4.8.4/armv6-m\libcr_eabihelpers.a(double.o)
 .text.__aeabi_d2lz
                0x00000000       0x84 c:/nxp/lpcxpresso_7.5.0_254/lpcxpresso/tools/bin/../lib/gcc/arm-none-eabi/4.8.4/armv6-m\libcr_eabihelpers.a(double.o)
 .text.__aeabi_d2ulz
                0x00000000       0x58 c:/nxp/lpcxpresso_7.5.0_254/lpcxpresso/tools/bin/../lib/gcc/arm-none-eabi/4.8.4/armv6-m\libcr_eabihelpers.a(double.o)
 .text.__bhs_ul2d
                0x00000000       0xb4 c:/nxp/lpcxpresso_7.5.0_254/lpcxpresso/tools/bin/../lib/gcc/arm-none-eabi/4.8.4/armv6-m\libcr_eabihelpers.a(double.o)
 .text.__aeabi_ui2d
                0x00000000        0xc c:/nxp/lpcxpresso_7.5.0_254/lpcxpresso/tools/bin/../lib/gcc/arm-none-eabi/4.8.4/armv6-m\libcr_eabihelpers.a(double.o)
 .text.__aeabi_l2d
                0x00000000       0x20 c:/nxp/lpcxpresso_7.5.0_254/lpcxpresso/tools/bin/../lib/gcc/arm-none-eabi/4.8.4/armv6-m\libcr_eabihelpers.a(double.o)
 .text.__aeabi_ul2d
                0x00000000        0xc c:/nxp/lpcxpresso_7.5.0_254/lpcxpresso/tools/bin/../lib/gcc/arm-none-eabi/4.8.4/armv6-m\libcr_eabihelpers.a(double.o)
 .text.__aeabi_dcmpgt
                0x00000000       0x68 c:/nxp/lpcxpresso_7.5.0_254/lpcxpresso/tools/bin/../lib/gcc/arm-none-eabi/4.8.4/armv6-m\libcr_eabihelpers.a(double.o)
 .text.__aeabi_dcmpun
                0x00000000       0x1c c:/nxp/lpcxpresso_7.5.0_254/lpcxpresso/tools/bin/../lib/gcc/arm-none-eabi/4.8.4/armv6-m\libcr_eabihelpers.a(double.o)
 .text.__aeabi_cdcmple
                0x00000000       0x2e c:/nxp/lpcxpresso_7.5.0_254/lpcxpresso/tools/bin/../lib/gcc/arm-none-eabi/4.8.4/armv6-m\libcr_eabihelpers.a(double.o)
 .text.__aeabi_cdrcmple
                0x00000000       0x14 c:/nxp/lpcxpresso_7.5.0_254/lpcxpresso/tools/bin/../lib/gcc/arm-none-eabi/4.8.4/armv6-m\libcr_eabihelpers.a(double.o)
 .text          0x00000000        0x0 c:/nxp/lpcxpresso_7.5.0_254/lpcxpresso/tools/bin/../lib/gcc/arm-none-eabi/4.8.4/armv6-m\libcr_eabihelpers.a(llong.o)
 .data          0x00000000        0x0 c:/nxp/lpcxpresso_7.5.0_254/lpcxpresso/tools/bin/../lib/gcc/arm-none-eabi/4.8.4/armv6-m\libcr_eabihelpers.a(llong.o)
 .bss           0x00000000        0x0 c:/nxp/lpcxpresso_7.5.0_254/lpcxpresso/tools/bin/../lib/gcc/arm-none-eabi/4.8.4/armv6-m\libcr_eabihelpers.a(llong.o)
 .text.__aeabi_llong_llsl
                0x00000000       0x18 c:/nxp/lpcxpresso_7.5.0_254/lpcxpresso/tools/bin/../lib/gcc/arm-none-eabi/4.8.4/armv6-m\libcr_eabihelpers.a(llong.o)
 .text.__aeabi_llong_llsr
                0x00000000       0x18 c:/nxp/lpcxpresso_7.5.0_254/lpcxpresso/tools/bin/../lib/gcc/arm-none-eabi/4.8.4/armv6-m\libcr_eabihelpers.a(llong.o)
 .text.__aeabi_llong_lasr
                0x00000000       0x18 c:/nxp/lpcxpresso_7.5.0_254/lpcxpresso/tools/bin/../lib/gcc/arm-none-eabi/4.8.4/armv6-m\libcr_eabihelpers.a(llong.o)
 .text.__aeabi_llong_lcmp
                0x00000000       0x14 c:/nxp/lpcxpresso_7.5.0_254/lpcxpresso/tools/bin/../lib/gcc/arm-none-eabi/4.8.4/armv6-m\libcr_eabihelpers.a(llong.o)
 .text.__aeabi_llong_ulcmp
                0x00000000       0x10 c:/nxp/lpcxpresso_7.5.0_254/lpcxpresso/tools/bin/../lib/gcc/arm-none-eabi/4.8.4/armv6-m\libcr_eabihelpers.a(llong.o)
 .text          0x00000000        0x0 c:/nxp/lpcxpresso_7.5.0_254/lpcxpresso/tools/bin/../lib/gcc/arm-none-eabi/4.8.4/armv6-m\libcr_eabihelpers.a(memcpy.o)
 .data          0x00000000        0x0 c:/nxp/lpcxpresso_7.5.0_254/lpcxpresso/tools/bin/../lib/gcc/arm-none-eabi/4.8.4/armv6-m\libcr_eabihelpers.a(memcpy.o)
 .bss           0x00000000        0x0 c:/nxp/lpcxpresso_7.5.0_254/lpcxpresso/tools/bin/../lib/gcc/arm-none-eabi/4.8.4/armv6-m\libcr_eabihelpers.a(memcpy.o)
 .text.__aeabi_memmove
                0x00000000       0x1c c:/nxp/lpcxpresso_7.5.0_254/lpcxpresso/tools/bin/../lib/gcc/arm-none-eabi/4.8.4/armv6-m\libcr_eabihelpers.a(memcpy.o)
 .text.__aeabi_memclr
                0x00000000        0x6 c:/nxp/lpcxpresso_7.5.0_254/lpcxpresso/tools/bin/../lib/gcc/arm-none-eabi/4.8.4/armv6-m\libcr_eabihelpers.a(memcpy.o)
 .text.__aeabi_memset
                0x00000000        0x8 c:/nxp/lpcxpresso_7.5.0_254/lpcxpresso/tools/bin/../lib/gcc/arm-none-eabi/4.8.4/armv6-m\libcr_eabihelpers.a(memcpy.o)
 .text          0x00000000        0x0 c:/nxp/lpcxpresso_7.5.0_254/lpcxpresso/tools/bin/../lib/gcc/arm-none-eabi/4.8.4/../../../../arm-none-eabi/lib/armv6-m\libcr_nohost.a(__sys_appexit.o)
 .data          0x00000000        0x0 c:/nxp/lpcxpresso_7.5.0_254/lpcxpresso/tools/bin/../lib/gcc/arm-none-eabi/4.8.4/../../../../arm-none-eabi/lib/armv6-m\libcr_nohost.a(__sys_appexit.o)
 .bss           0x00000000        0x0 c:/nxp/lpcxpresso_7.5.0_254/lpcxpresso/tools/bin/../lib/gcc/arm-none-eabi/4.8.4/../../../../arm-none-eabi/lib/armv6-m\libcr_nohost.a(__sys_appexit.o)
 .text          0x00000000        0x0 c:/nxp/lpcxpresso_7.5.0_254/lpcxpresso/tools/bin/../lib/gcc/arm-none-eabi/4.8.4/../../../../arm-none-eabi/lib/armv6-m\libcr_nohost.a(__sys_close.o)
 .data          0x00000000        0x0 c:/nxp/lpcxpresso_7.5.0_254/lpcxpresso/tools/bin/../lib/gcc/arm-none-eabi/4.8.4/../../../../arm-none-eabi/lib/armv6-m\libcr_nohost.a(__sys_close.o)
 .bss           0x00000000        0x0 c:/nxp/lpcxpresso_7.5.0_254/lpcxpresso/tools/bin/../lib/gcc/arm-none-eabi/4.8.4/../../../../arm-none-eabi/lib/armv6-m\libcr_nohost.a(__sys_close.o)
 .text          0x00000000        0x0 c:/nxp/lpcxpresso_7.5.0_254/lpcxpresso/tools/bin/../lib/gcc/arm-none-eabi/4.8.4/../../../../arm-none-eabi/lib/armv6-m\libcr_nohost.a(__sys_flen.o)
 .data          0x00000000        0x0 c:/nxp/lpcxpresso_7.5.0_254/lpcxpresso/tools/bin/../lib/gcc/arm-none-eabi/4.8.4/../../../../arm-none-eabi/lib/armv6-m\libcr_nohost.a(__sys_flen.o)
 .bss           0x00000000        0x0 c:/nxp/lpcxpresso_7.5.0_254/lpcxpresso/tools/bin/../lib/gcc/arm-none-eabi/4.8.4/../../../../arm-none-eabi/lib/armv6-m\libcr_nohost.a(__sys_flen.o)
 .text          0x00000000        0x0 c:/nxp/lpcxpresso_7.5.0_254/lpcxpresso/tools/bin/../lib/gcc/arm-none-eabi/4.8.4/../../../../arm-none-eabi/lib/armv6-m\libcr_nohost.a(__sys_istty.o)
 .data          0x00000000        0x0 c:/nxp/lpcxpresso_7.5.0_254/lpcxpresso/tools/bin/../lib/gcc/arm-none-eabi/4.8.4/../../../../arm-none-eabi/lib/armv6-m\libcr_nohost.a(__sys_istty.o)
 .bss           0x00000000        0x0 c:/nxp/lpcxpresso_7.5.0_254/lpcxpresso/tools/bin/../lib/gcc/arm-none-eabi/4.8.4/../../../../arm-none-eabi/lib/armv6-m\libcr_nohost.a(__sys_istty.o)
 .text          0x00000000        0x0 c:/nxp/lpcxpresso_7.5.0_254/lpcxpresso/tools/bin/../lib/gcc/arm-none-eabi/4.8.4/../../../../arm-none-eabi/lib/armv6-m\libcr_nohost.a(__sys_read.o)
 .data          0x00000000        0x0 c:/nxp/lpcxpresso_7.5.0_254/lpcxpresso/tools/bin/../lib/gcc/arm-none-eabi/4.8.4/../../../../arm-none-eabi/lib/armv6-m\libcr_nohost.a(__sys_read.o)
 .bss           0x00000000        0x0 c:/nxp/lpcxpresso_7.5.0_254/lpcxpresso/tools/bin/../lib/gcc/arm-none-eabi/4.8.4/../../../../arm-none-eabi/lib/armv6-m\libcr_nohost.a(__sys_read.o)
 .text.__sys_read
                0x00000000        0x4 c:/nxp/lpcxpresso_7.5.0_254/lpcxpresso/tools/bin/../lib/gcc/arm-none-eabi/4.8.4/../../../../arm-none-eabi/lib/armv6-m\libcr_nohost.a(__sys_read.o)
 .comment       0x00000000       0x71 c:/nxp/lpcxpresso_7.5.0_254/lpcxpresso/tools/bin/../lib/gcc/arm-none-eabi/4.8.4/../../../../arm-none-eabi/lib/armv6-m\libcr_nohost.a(__sys_read.o)
 .ARM.attributes
                0x00000000       0x31 c:/nxp/lpcxpresso_7.5.0_254/lpcxpresso/tools/bin/../lib/gcc/arm-none-eabi/4.8.4/../../../../arm-none-eabi/lib/armv6-m\libcr_nohost.a(__sys_read.o)
 .text          0x00000000        0x0 c:/nxp/lpcxpresso_7.5.0_254/lpcxpresso/tools/bin/../lib/gcc/arm-none-eabi/4.8.4/../../../../arm-none-eabi/lib/armv6-m\libcr_nohost.a(__sys_remove.o)
 .data          0x00000000        0x0 c:/nxp/lpcxpresso_7.5.0_254/lpcxpresso/tools/bin/../lib/gcc/arm-none-eabi/4.8.4/../../../../arm-none-eabi/lib/armv6-m\libcr_nohost.a(__sys_remove.o)
 .bss           0x00000000        0x0 c:/nxp/lpcxpresso_7.5.0_254/lpcxpresso/tools/bin/../lib/gcc/arm-none-eabi/4.8.4/../../../../arm-none-eabi/lib/armv6-m\libcr_nohost.a(__sys_remove.o)
 .text          0x00000000        0x0 c:/nxp/lpcxpresso_7.5.0_254/lpcxpresso/tools/bin/../lib/gcc/arm-none-eabi/4.8.4/../../../../arm-none-eabi/lib/armv6-m\libcr_nohost.a(__sys_rename.o)
 .data          0x00000000        0x0 c:/nxp/lpcxpresso_7.5.0_254/lpcxpresso/tools/bin/../lib/gcc/arm-none-eabi/4.8.4/../../../../arm-none-eabi/lib/armv6-m\libcr_nohost.a(__sys_rename.o)
 .bss           0x00000000        0x0 c:/nxp/lpcxpresso_7.5.0_254/lpcxpresso/tools/bin/../lib/gcc/arm-none-eabi/4.8.4/../../../../arm-none-eabi/lib/armv6-m\libcr_nohost.a(__sys_rename.o)
 .text.__sys_rename
                0x00000000        0x6 c:/nxp/lpcxpresso_7.5.0_254/lpcxpresso/tools/bin/../lib/gcc/arm-none-eabi/4.8.4/../../../../arm-none-eabi/lib/armv6-m\libcr_nohost.a(__sys_rename.o)
 .comment       0x00000000       0x71 c:/nxp/lpcxpresso_7.5.0_254/lpcxpresso/tools/bin/../lib/gcc/arm-none-eabi/4.8.4/../../../../arm-none-eabi/lib/armv6-m\libcr_nohost.a(__sys_rename.o)
 .ARM.attributes
                0x00000000       0x31 c:/nxp/lpcxpresso_7.5.0_254/lpcxpresso/tools/bin/../lib/gcc/arm-none-eabi/4.8.4/../../../../arm-none-eabi/lib/armv6-m\libcr_nohost.a(__sys_rename.o)
 .text          0x00000000        0x0 c:/nxp/lpcxpresso_7.5.0_254/lpcxpresso/tools/bin/../lib/gcc/arm-none-eabi/4.8.4/../../../../arm-none-eabi/lib/armv6-m\libcr_nohost.a(__sys_seek.o)
 .data          0x00000000        0x0 c:/nxp/lpcxpresso_7.5.0_254/lpcxpresso/tools/bin/../lib/gcc/arm-none-eabi/4.8.4/../../../../arm-none-eabi/lib/armv6-m\libcr_nohost.a(__sys_seek.o)
 .bss           0x00000000        0x0 c:/nxp/lpcxpresso_7.5.0_254/lpcxpresso/tools/bin/../lib/gcc/arm-none-eabi/4.8.4/../../../../arm-none-eabi/lib/armv6-m\libcr_nohost.a(__sys_seek.o)
 .text          0x00000000        0x0 c:/nxp/lpcxpresso_7.5.0_254/lpcxpresso/tools/bin/../lib/gcc/arm-none-eabi/4.8.4/../../../../arm-none-eabi/lib/armv6-m\libcr_nohost.a(__sys_tmpnam.o)
 .data          0x00000000        0x0 c:/nxp/lpcxpresso_7.5.0_254/lpcxpresso/tools/bin/../lib/gcc/arm-none-eabi/4.8.4/../../../../arm-none-eabi/lib/armv6-m\libcr_nohost.a(__sys_tmpnam.o)
 .bss           0x00000000        0x0 c:/nxp/lpcxpresso_7.5.0_254/lpcxpresso/tools/bin/../lib/gcc/arm-none-eabi/4.8.4/../../../../arm-none-eabi/lib/armv6-m\libcr_nohost.a(__sys_tmpnam.o)

Memory Configuration

Name             Origin             Length             Attributes
MFlash96         0x00006000         0x00012000         xr
RamLoc8          0x10000000         0x00002000         xrw
RamPeriph2       0x20000000         0x00000800         xrw
SRAM1_2          0x20004000         0x00000800         xrw
*default*        0x00000000         0xffffffff

Linker script and memory map

LOAD ./src/netutil/netutil.o
LOAD ./src/modbus/mb.o
LOAD ./src/modbus/mbascii.o
LOAD ./src/modbus/mbcrc.o
LOAD ./src/modbus/mbrtu.o
LOAD ./src/modbus/mbtcp.o
LOAD ./src/modbus/mbtimer.o
LOAD ./src/callback/dhcp_cb.o
LOAD ./src/S2E/S2E.o
LOAD ./src/PlatformHandler/eepromHandler.o
LOAD ./src/PlatformHandler/sspHandler.o
LOAD ./src/PlatformHandler/timerHandler.o
LOAD ./src/PlatformHandler/uartHandler.o
LOAD ./src/Internet/httpServer/httpParser.o
LOAD ./src/Internet/httpServer/httpServer.o
LOAD ./src/Internet/httpServer/httpUtil.o
LOAD ./src/Internet/TFTP/netutil.o
LOAD ./src/Internet/TFTP/tftp.o
LOAD ./src/Internet/SNTP/sntp.o
LOAD ./src/Internet/SNMP/snmp.o
LOAD ./src/Internet/SNMP/snmp_custom.o
LOAD ./src/Internet/MQTT/MQTTPacket/src/MQTTConnectClient.o
LOAD ./src/Internet/MQTT/MQTTPacket/src/MQTTConnectServer.o
LOAD ./src/Internet/MQTT/MQTTPacket/src/MQTTDeserializePublish.o
LOAD ./src/Internet/MQTT/MQTTPacket/src/MQTTFormat.o
LOAD ./src/Internet/MQTT/MQTTPacket/src/MQTTPacket.o
LOAD ./src/Internet/MQTT/MQTTPacket/src/MQTTSerializePublish.o
LOAD ./src/Internet/MQTT/MQTTPacket/src/MQTTSubscribeClient.o
LOAD ./src/Internet/MQTT/MQTTPacket/src/MQTTSubscribeServer.o
LOAD ./src/Internet/MQTT/MQTTPacket/src/MQTTUnsubscribeClient.o
LOAD ./src/Internet/MQTT/MQTTPacket/src/MQTTUnsubscribeServer.o
LOAD ./src/Internet/MQTT/MQTTClient.o
LOAD ./src/Internet/MQTT/mqtt_interface.o
LOAD ./src/Internet/FTPServer/ftpd.o
LOAD ./src/Internet/FTPClient/ftpc.o
LOAD ./src/Internet/DNS/dns.o
LOAD ./src/Internet/DHCP/dhcp.o
LOAD ./src/Ethernet/W5500/w5500.o
LOAD ./src/Ethernet/socket.o
LOAD ./src/Ethernet/wizchip_conf.o
LOAD ./src/Configuration/ConfigData.o
LOAD ./src/Configuration/ConfigMessage.o
LOAD ./src/ATcmd/library/sockutil.o
LOAD ./src/ATcmd/library/util.o
LOAD ./src/ATcmd/atcmd.o
LOAD ./src/ATcmd/cmdrun.o
LOAD ./src/aeabi_romdiv_patch.o
LOAD ./src/cr_startup_lpc11exx.o
LOAD ./src/crp.o
LOAD ./src/main.o
LOAD ./src/sysinit.o
LOAD C:\Users\boomw\Documents\lpcxpresso-workspace-wiz550s2e\wiznet_s2e_wiz550s2e_board\Release\libwiznet_s2e_wiz550s2e_board.a
LOAD C:\Users\boomw\Documents\lpcxpresso-workspace-wiz550s2e\lpc_chip_11exx\Release\liblpc_chip_11exx.a
START GROUP
LOAD c:/nxp/lpcxpresso_7.5.0_254/lpcxpresso/tools/bin/../lib/gcc/arm-none-eabi/4.8.4/../../../../arm-none-eabi/lib/armv6-m\libcr_nohost.a
LOAD c:/nxp/lpcxpresso_7.5.0_254/lpcxpresso/tools/bin/../lib/gcc/arm-none-eabi/4.8.4/../../../../arm-none-eabi/lib/armv6-m\libcr_c.a
LOAD c:/nxp/lpcxpresso_7.5.0_254/lpcxpresso/tools/bin/../lib/gcc/arm-none-eabi/4.8.4/armv6-m\libcr_eabihelpers.a
END GROUP
                0x00018000                __top_MFlash96 = 0x18000
                0x10002000                __top_RamLoc8 = 0x10002000
                0x20000800                __top_RamPeriph2 = 0x20000800
                0x20004800                __top_SRAM1_2 = 0x20004800

.text           0x00006000     0xfe48
 FILL mask 0xff
                0x00006000                __vectors_start__ = ABSOLUTE (.)
 *(.isr_vector)
 .isr_vector    0x00006000       0xc0 ./src/cr_startup_lpc11exx.o
                0x00006000                g_pfnVectors
                0x000060c0                . = ALIGN (0x4)
                0x000060c0                __section_table_start = .
                0x000060c0                __data_section_table = .
                0x000060c0        0x4 LONG 0x15e48 LOADADDR (.data)
                0x000060c4        0x4 LONG 0x10000000 ADDR (.data)
                0x000060c8        0x4 LONG 0x15c SIZEOF (.data)
                0x000060cc        0x4 LONG 0x15e48 LOADADDR (.data_RAM2)
                0x000060d0        0x4 LONG 0x20000000 ADDR (.data_RAM2)
                0x000060d4        0x4 LONG 0x0 SIZEOF (.data_RAM2)
                0x000060d8        0x4 LONG 0x15e48 LOADADDR (.data_RAM3)
                0x000060dc        0x4 LONG 0x20004000 ADDR (.data_RAM3)
                0x000060e0        0x4 LONG 0x0 SIZEOF (.data_RAM3)
                0x000060e4                __data_section_table_end = .
                0x000060e4                __bss_section_table = .
                0x000060e4        0x4 LONG 0x1000015c ADDR (.bss)
                0x000060e8        0x4 LONG 0x16a8 SIZEOF (.bss)
                0x000060ec        0x4 LONG 0x20000000 ADDR (.bss_RAM2)
                0x000060f0        0x4 LONG 0x0 SIZEOF (.bss_RAM2)
                0x000060f4        0x4 LONG 0x20004000 ADDR (.bss_RAM3)
                0x000060f8        0x4 LONG 0x0 SIZEOF (.bss_RAM3)
                0x000060fc                __bss_section_table_end = .
                0x000060fc                __section_table_end = .
 *(.after_vectors*)
 .after_vectors
                0x000060fc       0xdc ./src/cr_startup_lpc11exx.o
                0x000060fc                NMI_Handler
                0x00006100                HardFault_Handler
                0x00006104                SVC_Handler
                0x00006108                PendSV_Handler
                0x0000610c                SysTick_Handler
                0x00006110                FLEX_INT7_IRQHandler
                0x00006110                FMC_IRQHandler
                0x00006110                FLEX_INT1_IRQHandler
                0x00006110                IntDefaultHandler
                0x00006110                SSP0_IRQHandler
                0x00006110                FLEX_INT6_IRQHandler
                0x00006110                FLEX_INT2_IRQHandler
                0x00006110                TIMER16_1_IRQHandler
                0x00006110                FLEX_INT5_IRQHandler
                0x00006110                ADC_IRQHandler
                0x00006110                SSP1_IRQHandler
                0x00006110                FLEX_INT3_IRQHandler
                0x00006110                BOD_IRQHandler
                0x00006110                I2C_IRQHandler
                0x00006110                WDT_IRQHandler
                0x00006110                TIMER16_0_IRQHandler
                0x00006110                GINT0_IRQHandler
                0x00006110                FLEX_INT4_IRQHandler
                0x00006110                GINT1_IRQHandler
                0x00006114                ResetISR
                0x000061b0                data_init
                0x000061c4                bss_init
                0x000002fc                . = 0x2fc
 *fill*         0x000061d8      0x124 ff
                0x000062fc                PROVIDE (__CRP_WORD_START__, .)
 *(.crp)
 .crp           0x000062fc        0x4 ./src/crp.o
                0x000062fc                CRP_WORD
                0x00006300                PROVIDE (__CRP_WORD_END__, .)
                0x00000001                ASSERT (! ((__CRP_WORD_START__ == __CRP_WORD_END__)), Linker CRP Enabled, but no CRP_WORD provided within application)
 *(.text*)
 .text.mbTCPtoRTU
                0x00006300       0x3c ./src/modbus/mb.o
                0x00006300                mbTCPtoRTU
 .text.mbRTUtoTCP
                0x0000633c       0x68 ./src/modbus/mb.o
                0x0000633c                mbRTUtoTCP
 .text.mbTCPtoASCII
                0x000063a4       0x90 ./src/modbus/mb.o
                0x000063a4                mbTCPtoASCII
 .text.mbASCIItoTCP
                0x00006434       0x68 ./src/modbus/mb.o
                0x00006434                mbASCIItoTCP
 .text.prvucMBBIN2CHAR
                0x0000649c       0x20 ./src/modbus/mbascii.o
                0x0000649c                prvucMBBIN2CHAR
 .text.prvucMBLRC
                0x000064bc      0x198 ./src/modbus/mbascii.o
                0x000064bc                prvucMBLRC
 .text.MBascii2tcpFrame
                0x00006654      0x2ac ./src/modbus/mbascii.o
                0x00006654                MBascii2tcpFrame
 .text.ASCII_Uart_RX
                0x00006900       0x8c ./src/modbus/mbascii.o
                0x00006900                ASCII_Uart_RX
 .text.usMBCRC16
                0x0000698c       0x40 ./src/modbus/mbcrc.o
                0x0000698c                usMBCRC16
 .text.eMBRTUInit
                0x000069cc       0x90 ./src/modbus/mbrtu.o
                0x000069cc                eMBRTUInit
 .text.MBrtu2tcpFrame
                0x00006a5c       0x68 ./src/modbus/mbrtu.o
                0x00006a5c                MBrtu2tcpFrame
 .text.RTU_Uart_RX
                0x00006ac4       0x7c ./src/modbus/mbrtu.o
                0x00006ac4                RTU_Uart_RX
 .text.MBtcp2rtuFrame
                0x00006b40      0x110 ./src/modbus/mbtcp.o
                0x00006b40                MBtcp2rtuFrame
 .text.MBtcp2asciiFrame
                0x00006c50       0xf8 ./src/modbus/mbtcp.o
                0x00006c50                MBtcp2asciiFrame
 .text.xMBPortTimersInit
                0x00006d48       0x54 ./src/modbus/mbtimer.o
                0x00006d48                xMBPortTimersInit
 .text.vMBPortTimersEnable
                0x00006d9c       0x2c ./src/modbus/mbtimer.o
                0x00006d9c                vMBPortTimersEnable
 .text.xMBRTUTimerT35Expired
                0x00006dc8       0x38 ./src/modbus/mbtimer.o
                0x00006dc8                xMBRTUTimerT35Expired
 .text.w5500_dhcp_assign
                0x00006e00       0x8c ./src/callback/dhcp_cb.o
                0x00006e00                w5500_dhcp_assign
 .text.w5500_dhcp_conflict
                0x00006e8c        0x4 ./src/callback/dhcp_cb.o
                0x00006e8c                w5500_dhcp_conflict
 .text.ether_to_uart
                0x00006e90      0x104 ./src/S2E/S2E.o
 .text.uart_to_ether
                0x00006f94      0x2c0 ./src/S2E/S2E.o
 .text.s2e_run  0x00007254      0x908 ./src/S2E/S2E.o
                0x00007254                s2e_run
 .text.read_eeprom
                0x00007b5c       0x44 ./src/PlatformHandler/eepromHandler.o
                0x00007b5c                read_eeprom
 .text.write_eeprom
                0x00007ba0       0x44 ./src/PlatformHandler/eepromHandler.o
                0x00007ba0                write_eeprom
 .text.wizchip_select
                0x00007be4        0xc ./src/PlatformHandler/sspHandler.o
 .text.wizchip_deselect
                0x00007bf0        0xc ./src/PlatformHandler/sspHandler.o
 .text.wizchip_readburst
                0x00007bfc       0x14 ./src/PlatformHandler/sspHandler.o
                0x00007bfc                wizchip_readburst
 .text.wizchip_read
                0x00007c10       0x1c ./src/PlatformHandler/sspHandler.o
 .text.wizchip_writeburst
                0x00007c2c       0x14 ./src/PlatformHandler/sspHandler.o
                0x00007c2c                wizchip_writeburst
 .text.wizchip_write
                0x00007c40       0x1c ./src/PlatformHandler/sspHandler.o
 .text.SPI_Init
                0x00007c5c       0x88 ./src/PlatformHandler/sspHandler.o
                0x00007c5c                SPI_Init
 .text.W5500_Init
                0x00007ce4       0x80 ./src/PlatformHandler/sspHandler.o
                0x00007ce4                W5500_Init
 .text.TIMER32_0_IRQHandler
                0x00007d64      0x280 ./src/PlatformHandler/timerHandler.o
                0x00007d64                TIMER32_0_IRQHandler
 .text.timer_Init
                0x00007fe4       0x54 ./src/PlatformHandler/timerHandler.o
                0x00007fe4                timer_Init
 .text.delay_cnt
                0x00008038       0x14 ./src/PlatformHandler/timerHandler.o
                0x00008038                delay_cnt
 .text.TIMER32_1_IRQHandler
                0x0000804c       0x18 ./src/PlatformHandler/timerHandler.o
                0x0000804c                TIMER32_1_IRQHandler
 .text.USART_IRQHandler
                0x00008064       0x1c ./src/PlatformHandler/uartHandler.o
                0x00008064                USART_IRQHandler
 .text.serial_info_init
                0x00008080       0xfc ./src/PlatformHandler/uartHandler.o
                0x00008080                serial_info_init
 .text.UART_buffer_flush
                0x0000817c        0x8 ./src/PlatformHandler/uartHandler.o
                0x0000817c                UART_buffer_flush
 .text.UART_read
                0x00008184       0x18 ./src/PlatformHandler/uartHandler.o
                0x00008184                UART_read
 .text.UART_write
                0x0000819c       0x18 ./src/PlatformHandler/uartHandler.o
                0x0000819c                UART_write
 .text.UART_Init
                0x000081b4      0x16c ./src/PlatformHandler/uartHandler.o
                0x000081b4                UART_Init
 .text.parseDNSMSG
                0x00008320      0x8c4 ./src/Internet/DNS/dns.o
                0x00008320                parseDNSMSG
 .text.DNS_init
                0x00008be4       0x20 ./src/Internet/DNS/dns.o
                0x00008be4                DNS_init
 .text.DNS_run  0x00008c04      0x194 ./src/Internet/DNS/dns.o
                0x00008c04                DNS_run
 .text.DNS_time_handler
                0x00008d98       0x10 ./src/Internet/DNS/dns.o
                0x00008d98                DNS_time_handler
 .text.default_ip_assign
                0x00008da8       0x34 ./src/Internet/DHCP/dhcp.o
                0x00008da8                default_ip_assign
 .text.default_ip_conflict
                0x00008ddc       0x24 ./src/Internet/DHCP/dhcp.o
                0x00008ddc                default_ip_conflict
 .text.default_ip_update
                0x00008e00       0x54 ./src/Internet/DHCP/dhcp.o
                0x00008e00                default_ip_update
 .text.reg_dhcp_cbfunc
                0x00008e54       0x40 ./src/Internet/DHCP/dhcp.o
                0x00008e54                reg_dhcp_cbfunc
 .text.makeDHCPMSG
                0x00008e94       0xd4 ./src/Internet/DHCP/dhcp.o
                0x00008e94                makeDHCPMSG
 .text.send_DHCP_DISCOVER
                0x00008f68      0x1e0 ./src/Internet/DHCP/dhcp.o
                0x00008f68                send_DHCP_DISCOVER
 .text.send_DHCP_REQUEST
                0x00009148      0x3f0 ./src/Internet/DHCP/dhcp.o
                0x00009148                send_DHCP_REQUEST
 .text.send_DHCP_DECLINE
                0x00009538      0x110 ./src/Internet/DHCP/dhcp.o
                0x00009538                send_DHCP_DECLINE
 .text.DHCP_run
                0x00009648      0x434 ./src/Internet/DHCP/dhcp.o
                0x00009648                DHCP_run
 .text.DHCP_init
                0x00009a7c       0xbc ./src/Internet/DHCP/dhcp.o
                0x00009a7c                DHCP_init
 .text.DHCP_time_handler
                0x00009b38       0x10 ./src/Internet/DHCP/dhcp.o
                0x00009b38                DHCP_time_handler
 .text.getIPfromDHCP
                0x00009b48       0x18 ./src/Internet/DHCP/dhcp.o
                0x00009b48                getIPfromDHCP
 .text.getGWfromDHCP
                0x00009b60       0x18 ./src/Internet/DHCP/dhcp.o
                0x00009b60                getGWfromDHCP
 .text.getSNfromDHCP
                0x00009b78       0x18 ./src/Internet/DHCP/dhcp.o
                0x00009b78                getSNfromDHCP
 .text.getDNSfromDHCP
                0x00009b90       0x18 ./src/Internet/DHCP/dhcp.o
                0x00009b90                getDNSfromDHCP
 .text.WIZCHIP_READ
                0x00009ba8       0x60 ./src/Ethernet/W5500/w5500.o
                0x00009ba8                WIZCHIP_READ
 .text.WIZCHIP_WRITE
                0x00009c08       0x60 ./src/Ethernet/W5500/w5500.o
                0x00009c08                WIZCHIP_WRITE
 .text.WIZCHIP_READ_BUF
                0x00009c68       0x7c ./src/Ethernet/W5500/w5500.o
                0x00009c68                WIZCHIP_READ_BUF
 .text.WIZCHIP_WRITE_BUF
                0x00009ce4       0x84 ./src/Ethernet/W5500/w5500.o
                0x00009ce4                WIZCHIP_WRITE_BUF
 .text.getSn_TX_FSR
                0x00009d68       0x50 ./src/Ethernet/W5500/w5500.o
                0x00009d68                getSn_TX_FSR
 .text.getSn_RX_RSR
                0x00009db8       0x50 ./src/Ethernet/W5500/w5500.o
                0x00009db8                getSn_RX_RSR
 .text.wiz_send_data
                0x00009e08       0x70 ./src/Ethernet/W5500/w5500.o
                0x00009e08                wiz_send_data
 .text.wiz_recv_data
                0x00009e78       0x70 ./src/Ethernet/W5500/w5500.o
                0x00009e78                wiz_recv_data
 .text.wiz_recv_ignore
                0x00009ee8       0x3c ./src/Ethernet/W5500/w5500.o
                0x00009ee8                wiz_recv_ignore
 .text.socket   0x00009f24      0x1d0 ./src/Ethernet/socket.o
                0x00009f24                socket
 .text.close    0x0000a0f4       0x7c ./src/Ethernet/socket.o
                0x0000a0f4                close
 .text.listen   0x0000a170       0xc8 ./src/Ethernet/socket.o
                0x0000a170                listen
 .text.connect  0x0000a238       0xf8 ./src/Ethernet/socket.o
                0x0000a238                connect
 .text.disconnect
                0x0000a330       0xfc ./src/Ethernet/socket.o
                0x0000a330                disconnect
 .text.send     0x0000a42c      0x1e8 ./src/Ethernet/socket.o
                0x0000a42c                send
 .text.recv     0x0000a614      0x1cc ./src/Ethernet/socket.o
                0x0000a614                recv
 .text.sendto   0x0000a7e0      0x164 ./src/Ethernet/socket.o
                0x0000a7e0                sendto
 .text.recvfrom
                0x0000a944      0x204 ./src/Ethernet/socket.o
                0x0000a944                recvfrom
 .text.ctlsocket
                0x0000ab48       0xcc ./src/Ethernet/socket.o
                0x0000ab48                ctlsocket
 .text.getsockopt
                0x0000ac14      0x144 ./src/Ethernet/socket.o
                0x0000ac14                getsockopt
 .text.wizchip_cris_enter
                0x0000ad58        0x4 ./src/Ethernet/wizchip_conf.o
                0x0000ad58                wizchip_cris_enter
 .text.wizchip_cris_exit
                0x0000ad5c        0x4 ./src/Ethernet/wizchip_conf.o
                0x0000ad5c                wizchip_cris_exit
 .text.wizchip_cs_select
                0x0000ad60        0x4 ./src/Ethernet/wizchip_conf.o
                0x0000ad60                wizchip_cs_select
 .text.wizchip_cs_deselect
                0x0000ad64        0x4 ./src/Ethernet/wizchip_conf.o
                0x0000ad64                wizchip_cs_deselect
 .text.wizchip_bus_readdata
                0x0000ad68        0x8 ./src/Ethernet/wizchip_conf.o
                0x0000ad68                wizchip_bus_readdata
 .text.wizchip_bus_writedata
                0x0000ad70        0x4 ./src/Ethernet/wizchip_conf.o
                0x0000ad70                wizchip_bus_writedata
 .text.wizchip_spi_readbyte
                0x0000ad74        0x4 ./src/Ethernet/wizchip_conf.o
                0x0000ad74                wizchip_spi_readbyte
 .text.wizchip_spi_writebyte
                0x0000ad78        0x4 ./src/Ethernet/wizchip_conf.o
                0x0000ad78                wizchip_spi_writebyte
 .text.wizchip_spi_readburst
                0x0000ad7c        0x4 ./src/Ethernet/wizchip_conf.o
                0x0000ad7c                wizchip_spi_readburst
 .text.wizchip_spi_writeburst
                0x0000ad80        0x4 ./src/Ethernet/wizchip_conf.o
                0x0000ad80                wizchip_spi_writeburst
 .text.reg_wizchip_cs_cbfunc
                0x0000ad84       0x24 ./src/Ethernet/wizchip_conf.o
                0x0000ad84                reg_wizchip_cs_cbfunc
 .text.reg_wizchip_spi_cbfunc
                0x0000ada8       0x2c ./src/Ethernet/wizchip_conf.o
                0x0000ada8                reg_wizchip_spi_cbfunc
 .text.reg_wizchip_spiburst_cbfunc
                0x0000add4       0x2c ./src/Ethernet/wizchip_conf.o
                0x0000add4                reg_wizchip_spiburst_cbfunc
 .text.ctlnetwork
                0x0000ae00      0x134 ./src/Ethernet/wizchip_conf.o
                0x0000ae00                ctlnetwork
 .text.wizchip_init
                0x0000af34      0x17c ./src/Ethernet/wizchip_conf.o
                0x0000af34                wizchip_init
 .text.ctlwizchip
                0x0000b0b0      0x340 ./src/Ethernet/wizchip_conf.o
                0x0000b0b0                ctlwizchip
 .text.get_S2E_Packet_pointer
                0x0000b3f0        0x8 ./src/Configuration/ConfigData.o
                0x0000b3f0                get_S2E_Packet_pointer
 .text.set_S2E_Packet_to_factory_value
                0x0000b3f8      0x188 ./src/Configuration/ConfigData.o
                0x0000b3f8                set_S2E_Packet_to_factory_value
 .text.load_S2E_Packet_from_eeprom
                0x0000b580       0x38 ./src/Configuration/ConfigData.o
                0x0000b580                load_S2E_Packet_from_eeprom
 .text.save_S2E_Packet_to_eeprom
                0x0000b5b8       0x20 ./src/Configuration/ConfigData.o
                0x0000b5b8                save_S2E_Packet_to_eeprom
 .text.get_S2E_Packet_value
                0x0000b5d8        0x8 ./src/Configuration/ConfigData.o
                0x0000b5d8                get_S2E_Packet_value
 .text.set_S2E_Packet_value
                0x0000b5e0        0x8 ./src/Configuration/ConfigData.o
                0x0000b5e0                set_S2E_Packet_value
 .text.set_S2E_Packet
                0x0000b5e8       0x5c ./src/Configuration/ConfigData.o
                0x0000b5e8                set_S2E_Packet
 .text.get_S2E_Packet
                0x0000b644       0x5c ./src/Configuration/ConfigData.o
                0x0000b644                get_S2E_Packet
 .text.Mac_Conf
                0x0000b6a0       0x18 ./src/Configuration/ConfigData.o
                0x0000b6a0                Mac_Conf
 .text.Net_Conf
                0x0000b6b8       0x6c ./src/Configuration/ConfigData.o
                0x0000b6b8                Net_Conf
 .text.set_mac  0x0000b724       0x14 ./src/Configuration/ConfigData.o
                0x0000b724                set_mac
 .text.unlikely.NVIC_SystemReset
                0x0000b738       0x18 ./src/Configuration/ConfigMessage.o
 .text.process_get_info
                0x0000b750      0x188 ./src/Configuration/ConfigMessage.o
 .text.process_set_info
                0x0000b8d8      0x1b0 ./src/Configuration/ConfigMessage.o
 .text.do_udp_config
                0x0000ba88      0x730 ./src/Configuration/ConfigMessage.o
                0x0000ba88                do_udp_config
 .text.sockwatch_open
                0x0000c1b8       0x20 ./src/ATcmd/library/sockutil.o
                0x0000c1b8                sockwatch_open
 .text.sockwatch_set
                0x0000c1d8       0x1c ./src/ATcmd/library/sockutil.o
                0x0000c1d8                sockwatch_set
 .text.sockwatch_clr
                0x0000c1f4       0x1c ./src/ATcmd/library/sockutil.o
                0x0000c1f4                sockwatch_clr
 .text.sockwatch_run
                0x0000c210      0x1d8 ./src/ATcmd/library/sockutil.o
                0x0000c210                sockwatch_run
 .text.ip_check
                0x0000c3e8       0xb8 ./src/ATcmd/library/sockutil.o
                0x0000c3e8                ip_check
 .text.port_check
                0x0000c4a0       0x34 ./src/ATcmd/library/sockutil.o
                0x0000c4a0                port_check
 .text.mac_check
                0x0000c4d4       0xb8 ./src/ATcmd/library/sockutil.o
                0x0000c4d4                mac_check
 .text.digit_length
                0x0000c58c       0x3c ./src/ATcmd/library/util.o
                0x0000c58c                digit_length
 .text.str_check
                0x0000c5c8       0x30 ./src/ATcmd/library/util.o
                0x0000c5c8                str_check
 .text.strsep   0x0000c5f8       0x3c ./src/ATcmd/library/util.o
                0x0000c5f8                strsep
 .text.cmd_resp.constprop.5
                0x0000c634      0x378 ./src/ATcmd/atcmd.o
 .text.cmd_resp.constprop.6
                0x0000c9ac      0x378 ./src/ATcmd/atcmd.o
 .text.hdl_fdns
                0x0000cd24       0xac ./src/ATcmd/atcmd.o
 .text.hdl_nopen
                0x0000cdd0      0x32c ./src/ATcmd/atcmd.o
 .text.hdl_msave
                0x0000d0fc       0x58 ./src/ATcmd/atcmd.o
 .text.hdl_mmode
                0x0000d154      0x208 ./src/ATcmd/atcmd.o
 .text.cmd_resp.constprop.7
                0x0000d35c      0x378 ./src/ATcmd/atcmd.o
 .text.hdl_nauto
                0x0000d6d4       0x2c ./src/ATcmd/atcmd.o
 .text.hdl_estat
                0x0000d700       0x2c ./src/ATcmd/atcmd.o
 .text.atc_init
                0x0000d72c       0x54 ./src/ATcmd/atcmd.o
                0x0000d72c                atc_init
 .text.cmd_resp_dump
                0x0000d780       0x60 ./src/ATcmd/atcmd.o
                0x0000d780                cmd_resp_dump
 .text.cmd_resp
                0x0000d7e0      0x544 ./src/ATcmd/atcmd.o
                0x0000d7e0                cmd_resp
 .text.hdl_mname
                0x0000dd24      0x170 ./src/ATcmd/atcmd.o
 .text.hdl_mpass
                0x0000de94      0x1d8 ./src/ATcmd/atcmd.o
 .text.hdl_mrst
                0x0000e06c       0x64 ./src/ATcmd/atcmd.o
 .text.hdl_mdata
                0x0000e0d0      0x10c ./src/ATcmd/atcmd.o
 .text.hdl_musart
                0x0000e1dc      0x62c ./src/ATcmd/atcmd.o
 .text.hdl_mstat
                0x0000e808      0x10c ./src/ATcmd/atcmd.o
 .text.hdl_mset
                0x0000e914      0x33c ./src/ATcmd/atcmd.o
 .text.hdl_nsock
                0x0000ec50      0x138 ./src/ATcmd/atcmd.o
 .text.hdl_nsend
                0x0000ed88      0x2ac ./src/ATcmd/atcmd.o
 .text.hdl_nclose
                0x0000f034      0x124 ./src/ATcmd/atcmd.o
 .text.hdl_nmac
                0x0000f158      0x174 ./src/ATcmd/atcmd.o
 .text.hdl_nstat
                0x0000f2cc      0x114 ./src/ATcmd/atcmd.o
 .text.hdl_nset
                0x0000f3e0      0x55c ./src/ATcmd/atcmd.o
 .text.atc_run  0x0000f93c      0x6e4 ./src/ATcmd/atcmd.o
                0x0000f93c                atc_run
 .text.sock_put
                0x00010020       0x3c ./src/ATcmd/cmdrun.o
 .text.act_nset_q
                0x0001005c      0x178 ./src/ATcmd/cmdrun.o
                0x0001005c                act_nset_q
 .text.act_nset_a
                0x000101d4       0xd4 ./src/ATcmd/cmdrun.o
                0x000101d4                act_nset_a
 .text.act_nstat
                0x000102a8      0x178 ./src/ATcmd/cmdrun.o
                0x000102a8                act_nstat
 .text.act_nmac_q
                0x00010420       0x50 ./src/ATcmd/cmdrun.o
                0x00010420                act_nmac_q
 .text.act_nmac_a
                0x00010470       0x48 ./src/ATcmd/cmdrun.o
                0x00010470                act_nmac_a
 .text.act_nopen_q
                0x000104b8       0x10 ./src/ATcmd/cmdrun.o
                0x000104b8                act_nopen_q
 .text.act_nopen_a
                0x000104c8      0x2c4 ./src/ATcmd/cmdrun.o
                0x000104c8                act_nopen_a
 .text.act_nclose
                0x0001078c       0xa4 ./src/ATcmd/cmdrun.o
                0x0001078c                act_nclose
 .text.act_nsend_chk
                0x00010830      0x15c ./src/ATcmd/cmdrun.o
                0x00010830                act_nsend_chk
 .text.act_nsend
                0x0001098c       0xf0 ./src/ATcmd/cmdrun.o
                0x0001098c                act_nsend
 .text.act_nrecv
                0x00010a7c      0x1cc ./src/ATcmd/cmdrun.o
                0x00010a7c                act_nrecv
 .text.atc_async_cb
                0x00010c48      0x178 ./src/ATcmd/cmdrun.o
                0x00010c48                atc_async_cb
 .text.act_nsock
                0x00010dc0      0x2dc ./src/ATcmd/cmdrun.o
                0x00010dc0                act_nsock
 .text.act_mset_q
                0x0001109c        0x4 ./src/ATcmd/cmdrun.o
                0x0001109c                act_mset_q
 .text.act_mset_a
                0x000110a0        0x4 ./src/ATcmd/cmdrun.o
                0x000110a0                act_mset_a
 .text.act_mstat
                0x000110a4       0x34 ./src/ATcmd/cmdrun.o
                0x000110a4                act_mstat
 .text.act_uart_q
                0x000110d8      0x130 ./src/ATcmd/cmdrun.o
                0x000110d8                act_uart_q
 .text.act_uart_a
                0x00011208       0x30 ./src/ATcmd/cmdrun.o
                0x00011208                act_uart_a
 .text.act_mdata
                0x00011238       0x7c ./src/ATcmd/cmdrun.o
                0x00011238                act_mdata
 .text.act_msave
                0x000112b4       0x14 ./src/ATcmd/cmdrun.o
                0x000112b4                act_msave
 .text.act_mmode_q
                0x000112c8       0xd8 ./src/ATcmd/cmdrun.o
                0x000112c8                act_mmode_q
 .text.act_mmode_a
                0x000113a0       0x7c ./src/ATcmd/cmdrun.o
                0x000113a0                act_mmode_a
 .text.act_mpass_q
                0x0001141c       0xc8 ./src/ATcmd/cmdrun.o
                0x0001141c                act_mpass_q
 .text.act_mpass_a
                0x000114e4       0x5c ./src/ATcmd/cmdrun.o
                0x000114e4                act_mpass_a
 .text.act_mname_q
                0x00011540       0x74 ./src/ATcmd/cmdrun.o
                0x00011540                act_mname_q
 .text.act_mname_a
                0x000115b4       0x30 ./src/ATcmd/cmdrun.o
                0x000115b4                act_mname_a
 .text.act_fdns
                0x000115e4       0xc0 ./src/ATcmd/cmdrun.o
                0x000115e4                act_fdns
 .text.__aeabi_idiv
                0x000116a4       0x10 ./src/aeabi_romdiv_patch.o
                0x000116a4                __aeabi_idivmod
                0x000116a4                __aeabi_idiv
 .text.__aeabi_uidiv
                0x000116b4       0x10 ./src/aeabi_romdiv_patch.o
                0x000116b4                __aeabi_uidivmod
                0x000116b4                __aeabi_uidiv
 .text.startup.main
                0x000116c4      0x1e0 ./src/main.o
                0x000116c4                main
 .text.SystemInit
                0x000118a4        0x8 ./src/sysinit.o
                0x000118a4                SystemInit
 .text.Board_UARTPutChar
                0x000118ac       0x18 C:\Users\boomw\Documents\lpcxpresso-workspace-wiz550s2e\wiznet_s2e_wiz550s2e_board\Release\libwiznet_s2e_wiz550s2e_board.a(board.o)
                0x000118ac                Board_UARTPutChar
 .text.__sys_write
                0x000118c4       0x1a C:\Users\boomw\Documents\lpcxpresso-workspace-wiz550s2e\wiznet_s2e_wiz550s2e_board\Release\libwiznet_s2e_wiz550s2e_board.a(board.o)
                0x000118c4                __sys_write
 *fill*         0x000118de        0x2 
 .text.Board_Debug_Init
                0x000118e0       0x44 C:\Users\boomw\Documents\lpcxpresso-workspace-wiz550s2e\wiznet_s2e_wiz550s2e_board\Release\libwiznet_s2e_wiz550s2e_board.a(board.o)
                0x000118e0                Board_Debug_Init
 .text.Board_LED_Set
                0x00011924       0x24 C:\Users\boomw\Documents\lpcxpresso-workspace-wiz550s2e\wiznet_s2e_wiz550s2e_board\Release\libwiznet_s2e_wiz550s2e_board.a(board.o)
                0x00011924                Board_LED_Set
 .text.Board_LED_Toggle
                0x00011948       0x28 C:\Users\boomw\Documents\lpcxpresso-workspace-wiz550s2e\wiznet_s2e_wiz550s2e_board\Release\libwiznet_s2e_wiz550s2e_board.a(board.o)
                0x00011948                Board_LED_Toggle
 .text.FLEX_INT0_IRQHandler
                0x00011970       0x1c C:\Users\boomw\Documents\lpcxpresso-workspace-wiz550s2e\wiznet_s2e_wiz550s2e_board\Release\libwiznet_s2e_wiz550s2e_board.a(board.o)
                0x00011970                FLEX_INT0_IRQHandler
 .text.Board_factory_get
                0x0001198c        0xe C:\Users\boomw\Documents\lpcxpresso-workspace-wiz550s2e\wiznet_s2e_wiz550s2e_board\Release\libwiznet_s2e_wiz550s2e_board.a(board.o)
                0x0001198c                Board_factory_get
 *fill*         0x0001199a        0x2 
 .text.Board_factory_Init
                0x0001199c       0x60 C:\Users\boomw\Documents\lpcxpresso-workspace-wiz550s2e\wiznet_s2e_wiz550s2e_board\Release\libwiznet_s2e_wiz550s2e_board.a(board.o)
                0x0001199c                Board_factory_Init
 .text.Board_Init
                0x000119fc       0x5c C:\Users\boomw\Documents\lpcxpresso-workspace-wiz550s2e\wiznet_s2e_wiz550s2e_board\Release\libwiznet_s2e_wiz550s2e_board.a(board.o)
                0x000119fc                Board_Init
 .text.Board_SystemInit
                0x00011a58       0x9c C:\Users\boomw\Documents\lpcxpresso-workspace-wiz550s2e\wiznet_s2e_wiz550s2e_board\Release\libwiznet_s2e_wiz550s2e_board.a(board_sysinit.o)
                0x00011a58                Board_SystemInit
 .text.SystemCoreClockUpdate
                0x00011af4       0x10 C:\Users\boomw\Documents\lpcxpresso-workspace-wiz550s2e\lpc_chip_11exx\Release\liblpc_chip_11exx.a(chip_11xx.o)
                0x00011af4                SystemCoreClockUpdate
 .text.Chip_Clock_SetSystemPLLSource
                0x00011b04       0x14 C:\Users\boomw\Documents\lpcxpresso-workspace-wiz550s2e\lpc_chip_11exx\Release\liblpc_chip_11exx.a(clock_11xx.o)
                0x00011b04                Chip_Clock_SetSystemPLLSource
 .text.Chip_Clock_SetMainClockSource
                0x00011b18       0x14 C:\Users\boomw\Documents\lpcxpresso-workspace-wiz550s2e\lpc_chip_11exx\Release\liblpc_chip_11exx.a(clock_11xx.o)
                0x00011b18                Chip_Clock_SetMainClockSource
 .text.Chip_Clock_GetWDTOSCRate
                0x00011b2c       0x28 C:\Users\boomw\Documents\lpcxpresso-workspace-wiz550s2e\lpc_chip_11exx\Release\liblpc_chip_11exx.a(clock_11xx.o)
                0x00011b2c                Chip_Clock_GetWDTOSCRate
 .text.Chip_Clock_GetSystemPLLInClockRate
                0x00011b54       0x28 C:\Users\boomw\Documents\lpcxpresso-workspace-wiz550s2e\lpc_chip_11exx\Release\liblpc_chip_11exx.a(clock_11xx.o)
                0x00011b54                Chip_Clock_GetSystemPLLInClockRate
 .text.Chip_Clock_GetSystemPLLOutClockRate
                0x00011b7c       0x18 C:\Users\boomw\Documents\lpcxpresso-workspace-wiz550s2e\lpc_chip_11exx\Release\liblpc_chip_11exx.a(clock_11xx.o)
                0x00011b7c                Chip_Clock_GetSystemPLLOutClockRate
 .text.Chip_Clock_GetMainClockRate
                0x00011b94       0x34 C:\Users\boomw\Documents\lpcxpresso-workspace-wiz550s2e\lpc_chip_11exx\Release\liblpc_chip_11exx.a(clock_11xx.o)
                0x00011b94                Chip_Clock_GetMainClockRate
 .text.Chip_Clock_GetSystemClockRate
                0x00011bc8       0x14 C:\Users\boomw\Documents\lpcxpresso-workspace-wiz550s2e\lpc_chip_11exx\Release\liblpc_chip_11exx.a(clock_11xx.o)
                0x00011bc8                Chip_Clock_GetSystemClockRate
 .text.Chip_GPIO_Init
                0x00011bdc       0x10 C:\Users\boomw\Documents\lpcxpresso-workspace-wiz550s2e\lpc_chip_11exx\Release\liblpc_chip_11exx.a(gpio_11xx_1.o)
                0x00011bdc                Chip_GPIO_Init
 .text.Chip_IOCON_PinMuxSet
                0x00011bec        0xc C:\Users\boomw\Documents\lpcxpresso-workspace-wiz550s2e\lpc_chip_11exx\Release\liblpc_chip_11exx.a(iocon_11xx.o)
                0x00011bec                Chip_IOCON_PinMuxSet
 .text.RingBuffer_Init
                0x00011bf8       0x10 C:\Users\boomw\Documents\lpcxpresso-workspace-wiz550s2e\lpc_chip_11exx\Release\liblpc_chip_11exx.a(ring_buffer.o)
                0x00011bf8                RingBuffer_Init
 .text.RingBuffer_Insert
                0x00011c08       0x2e C:\Users\boomw\Documents\lpcxpresso-workspace-wiz550s2e\lpc_chip_11exx\Release\liblpc_chip_11exx.a(ring_buffer.o)
                0x00011c08                RingBuffer_Insert
 .text.RingBuffer_InsertMult
                0x00011c36       0x7c C:\Users\boomw\Documents\lpcxpresso-workspace-wiz550s2e\lpc_chip_11exx\Release\liblpc_chip_11exx.a(ring_buffer.o)
                0x00011c36                RingBuffer_InsertMult
 .text.RingBuffer_Pop
                0x00011cb2       0x30 C:\Users\boomw\Documents\lpcxpresso-workspace-wiz550s2e\lpc_chip_11exx\Release\liblpc_chip_11exx.a(ring_buffer.o)
                0x00011cb2                RingBuffer_Pop
 .text.RingBuffer_PopMult
                0x00011ce2       0x78 C:\Users\boomw\Documents\lpcxpresso-workspace-wiz550s2e\lpc_chip_11exx\Release\liblpc_chip_11exx.a(ring_buffer.o)
                0x00011ce2                RingBuffer_PopMult
 *fill*         0x00011d5a        0x2 
 .text.Chip_SSP_SetClockRate
                0x00011d5c       0x18 C:\Users\boomw\Documents\lpcxpresso-workspace-wiz550s2e\lpc_chip_11exx\Release\liblpc_chip_11exx.a(ssp_11xx.o)
                0x00011d5c                Chip_SSP_SetClockRate
 .text.Chip_SSP_WriteFrames_Blocking
                0x00011d74       0x8c C:\Users\boomw\Documents\lpcxpresso-workspace-wiz550s2e\lpc_chip_11exx\Release\liblpc_chip_11exx.a(ssp_11xx.o)
                0x00011d74                Chip_SSP_WriteFrames_Blocking
 .text.Chip_SSP_ReadFrames_Blocking
                0x00011e00       0xb8 C:\Users\boomw\Documents\lpcxpresso-workspace-wiz550s2e\lpc_chip_11exx\Release\liblpc_chip_11exx.a(ssp_11xx.o)
                0x00011e00                Chip_SSP_ReadFrames_Blocking
 .text.Chip_SSP_SetMaster
                0x00011eb8       0x14 C:\Users\boomw\Documents\lpcxpresso-workspace-wiz550s2e\lpc_chip_11exx\Release\liblpc_chip_11exx.a(ssp_11xx.o)
                0x00011eb8                Chip_SSP_SetMaster
 .text.Chip_SSP_SetBitRate
                0x00011ecc       0x64 C:\Users\boomw\Documents\lpcxpresso-workspace-wiz550s2e\lpc_chip_11exx\Release\liblpc_chip_11exx.a(ssp_11xx.o)
                0x00011ecc                Chip_SSP_SetBitRate
 .text.Chip_SSP_Init
                0x00011f30       0x78 C:\Users\boomw\Documents\lpcxpresso-workspace-wiz550s2e\lpc_chip_11exx\Release\liblpc_chip_11exx.a(ssp_11xx.o)
                0x00011f30                Chip_SSP_Init
 .text.Chip_SYSCTL_PowerDown
                0x00011fa8       0x1c C:\Users\boomw\Documents\lpcxpresso-workspace-wiz550s2e\lpc_chip_11exx\Release\liblpc_chip_11exx.a(sysctl_11xx.o)
                0x00011fa8                Chip_SYSCTL_PowerDown
 .text.Chip_SYSCTL_PowerUp
                0x00011fc4       0x24 C:\Users\boomw\Documents\lpcxpresso-workspace-wiz550s2e\lpc_chip_11exx\Release\liblpc_chip_11exx.a(sysctl_11xx.o)
                0x00011fc4                Chip_SYSCTL_PowerUp
 .text.Chip_TIMER_Init
                0x00011fe8       0x40 C:\Users\boomw\Documents\lpcxpresso-workspace-wiz550s2e\lpc_chip_11exx\Release\liblpc_chip_11exx.a(timer_11xx.o)
                0x00011fe8                Chip_TIMER_Init
 .text.Chip_TIMER_Reset
                0x00012028       0x18 C:\Users\boomw\Documents\lpcxpresso-workspace-wiz550s2e\lpc_chip_11exx\Release\liblpc_chip_11exx.a(timer_11xx.o)
                0x00012028                Chip_TIMER_Reset
 .text.Chip_UART_Init
                0x00012040       0x28 C:\Users\boomw\Documents\lpcxpresso-workspace-wiz550s2e\lpc_chip_11exx\Release\liblpc_chip_11exx.a(uart_11xx.o)
                0x00012040                Chip_UART_Init
 .text.Chip_UART_Send
                0x00012068       0x1a C:\Users\boomw\Documents\lpcxpresso-workspace-wiz550s2e\lpc_chip_11exx\Release\liblpc_chip_11exx.a(uart_11xx.o)
                0x00012068                Chip_UART_Send
 .text.Chip_UART_SendBlocking
                0x00012082       0x24 C:\Users\boomw\Documents\lpcxpresso-workspace-wiz550s2e\lpc_chip_11exx\Release\liblpc_chip_11exx.a(uart_11xx.o)
                0x00012082                Chip_UART_SendBlocking
 .text.Chip_UART_SetBaud
                0x000120a6       0x38 C:\Users\boomw\Documents\lpcxpresso-workspace-wiz550s2e\lpc_chip_11exx\Release\liblpc_chip_11exx.a(uart_11xx.o)
                0x000120a6                Chip_UART_SetBaud
 .text.Chip_UART_RXIntHandlerRB
                0x000120de       0x1e C:\Users\boomw\Documents\lpcxpresso-workspace-wiz550s2e\lpc_chip_11exx\Release\liblpc_chip_11exx.a(uart_11xx.o)
                0x000120de                Chip_UART_RXIntHandlerRB
 .text.Chip_UART_TXIntHandlerRB
                0x000120fc       0x24 C:\Users\boomw\Documents\lpcxpresso-workspace-wiz550s2e\lpc_chip_11exx\Release\liblpc_chip_11exx.a(uart_11xx.o)
                0x000120fc                Chip_UART_TXIntHandlerRB
 .text.Chip_UART_SendRB
                0x00012120       0x3e C:\Users\boomw\Documents\lpcxpresso-workspace-wiz550s2e\lpc_chip_11exx\Release\liblpc_chip_11exx.a(uart_11xx.o)
                0x00012120                Chip_UART_SendRB
 .text.Chip_UART_ReadRB
                0x0001215e        0xe C:\Users\boomw\Documents\lpcxpresso-workspace-wiz550s2e\lpc_chip_11exx\Release\liblpc_chip_11exx.a(uart_11xx.o)
                0x0001215e                Chip_UART_ReadRB
 .text.Chip_UART_IRQRBHandler
                0x0001216c       0x2e C:\Users\boomw\Documents\lpcxpresso-workspace-wiz550s2e\lpc_chip_11exx\Release\liblpc_chip_11exx.a(uart_11xx.o)
                0x0001216c                Chip_UART_IRQRBHandler
 .text.__main   0x0001219a       0x12 c:/nxp/lpcxpresso_7.5.0_254/lpcxpresso/tools/bin/../lib/gcc/arm-none-eabi/4.8.4/../../../../arm-none-eabi/lib/armv6-m\libcr_nohost.a(_cr__main.o)
                0x0001219a                __main
 .text.memcpy   0x000121ac        0x8 c:/nxp/lpcxpresso_7.5.0_254/lpcxpresso/tools/bin/../lib/gcc/arm-none-eabi/4.8.4/../../../../arm-none-eabi/lib/armv6-m\libcr_c.a(memcpy.o)
                0x000121ac                memcpy
 .text.memset   0x000121b4        0x8 c:/nxp/lpcxpresso_7.5.0_254/lpcxpresso/tools/bin/../lib/gcc/arm-none-eabi/4.8.4/../../../../arm-none-eabi/lib/armv6-m\libcr_c.a(memset.o)
                0x000121b4                memset
 .text.malloc   0x000121bc       0xc4 c:/nxp/lpcxpresso_7.5.0_254/lpcxpresso/tools/bin/../lib/gcc/arm-none-eabi/4.8.4/../../../../arm-none-eabi/lib/armv6-m\libcr_c.a(alloc.o)
                0x000121bc                malloc
 .text.free     0x00012280        0xe c:/nxp/lpcxpresso_7.5.0_254/lpcxpresso/tools/bin/../lib/gcc/arm-none-eabi/4.8.4/../../../../arm-none-eabi/lib/armv6-m\libcr_c.a(alloc.o)
                0x00012280                free
 *fill*         0x0001228e        0x2 
 .text._Csys_alloc
                0x00012290       0x20 c:/nxp/lpcxpresso_7.5.0_254/lpcxpresso/tools/bin/../lib/gcc/arm-none-eabi/4.8.4/../../../../arm-none-eabi/lib/armv6-m\libcr_c.a(alloc.o)
                0x00012290                _Csys_alloc
 .text.isalpha  0x000122b0       0x14 c:/nxp/lpcxpresso_7.5.0_254/lpcxpresso/tools/bin/../lib/gcc/arm-none-eabi/4.8.4/../../../../arm-none-eabi/lib/armv6-m\libcr_c.a(ctype.o)
                0x000122b0                isalpha
 .text.isdigit  0x000122c4       0x14 c:/nxp/lpcxpresso_7.5.0_254/lpcxpresso/tools/bin/../lib/gcc/arm-none-eabi/4.8.4/../../../../arm-none-eabi/lib/armv6-m\libcr_c.a(ctype.o)
                0x000122c4                isdigit
 .text.isxdigit
                0x000122d8       0x14 c:/nxp/lpcxpresso_7.5.0_254/lpcxpresso/tools/bin/../lib/gcc/arm-none-eabi/4.8.4/../../../../arm-none-eabi/lib/armv6-m\libcr_c.a(ctype.o)
                0x000122d8                isxdigit
 .text.toupper  0x000122ec       0x14 c:/nxp/lpcxpresso_7.5.0_254/lpcxpresso/tools/bin/../lib/gcc/arm-none-eabi/4.8.4/../../../../arm-none-eabi/lib/armv6-m\libcr_c.a(ctype.o)
                0x000122ec                toupper
 .text.fp_round
                0x00012300       0x48 c:/nxp/lpcxpresso_7.5.0_254/lpcxpresso/tools/bin/../lib/gcc/arm-none-eabi/4.8.4/../../../../arm-none-eabi/lib/armv6-m\libcr_c.a(fpprintf.o)
 .text.pr_dec.constprop.1
                0x00012348       0x28 c:/nxp/lpcxpresso_7.5.0_254/lpcxpresso/tools/bin/../lib/gcc/arm-none-eabi/4.8.4/../../../../arm-none-eabi/lib/armv6-m\libcr_c.a(fpprintf.o)
 .text.sprintf  0x00012370       0x70 c:/nxp/lpcxpresso_7.5.0_254/lpcxpresso/tools/bin/../lib/gcc/arm-none-eabi/4.8.4/../../../../arm-none-eabi/lib/armv6-m\libcr_c.a(fpprintf.o)
                0x00012370                sprintf
 .text.fp_display
                0x000123e0      0x980 c:/nxp/lpcxpresso_7.5.0_254/lpcxpresso/tools/bin/../lib/gcc/arm-none-eabi/4.8.4/../../../../arm-none-eabi/lib/armv6-m\libcr_c.a(fpprintf.o)
 .text.vsnprintf
                0x00012d60       0x5c c:/nxp/lpcxpresso_7.5.0_254/lpcxpresso/tools/bin/../lib/gcc/arm-none-eabi/4.8.4/../../../../arm-none-eabi/lib/armv6-m\libcr_c.a(fpprintf.o)
                0x00012d60                vsnprintf
 .text.printf   0x00012dbc       0x50 c:/nxp/lpcxpresso_7.5.0_254/lpcxpresso/tools/bin/../lib/gcc/arm-none-eabi/4.8.4/../../../../arm-none-eabi/lib/armv6-m\libcr_c.a(fpprintf.o)
                0x00012dbc                printf
 .text._initio  0x00012e0c       0xa4 c:/nxp/lpcxpresso_7.5.0_254/lpcxpresso/tools/bin/../lib/gcc/arm-none-eabi/4.8.4/../../../../arm-none-eabi/lib/armv6-m\libcr_c.a(initio.o)
                0x00012e0c                _initio
 .text.memcmp   0x00012eb0       0x3a c:/nxp/lpcxpresso_7.5.0_254/lpcxpresso/tools/bin/../lib/gcc/arm-none-eabi/4.8.4/../../../../arm-none-eabi/lib/armv6-m\libcr_c.a(memcmp.o)
                0x00012eb0                memcmp
 *fill*         0x00012eea        0x2 
 .text.__vfprintf
                0x00012eec      0xd4c c:/nxp/lpcxpresso_7.5.0_254/lpcxpresso/tools/bin/../lib/gcc/arm-none-eabi/4.8.4/../../../../arm-none-eabi/lib/armv6-m\libcr_c.a(printf.o)
                0x00012eec                __vfprintf
 .text.ch_val   0x00013c38       0x30 c:/nxp/lpcxpresso_7.5.0_254/lpcxpresso/tools/bin/../lib/gcc/arm-none-eabi/4.8.4/../../../../arm-none-eabi/lib/armv6-m\libcr_c.a(scanf.o)
 .text._strtoul
                0x00013c68       0xcc c:/nxp/lpcxpresso_7.5.0_254/lpcxpresso/tools/bin/../lib/gcc/arm-none-eabi/4.8.4/../../../../arm-none-eabi/lib/armv6-m\libcr_c.a(scanf.o)
 .text.strtol   0x00013d34       0x80 c:/nxp/lpcxpresso_7.5.0_254/lpcxpresso/tools/bin/../lib/gcc/arm-none-eabi/4.8.4/../../../../arm-none-eabi/lib/armv6-m\libcr_c.a(scanf.o)
                0x00013d34                strtol
 .text.atoi     0x00013db4       0x18 c:/nxp/lpcxpresso_7.5.0_254/lpcxpresso/tools/bin/../lib/gcc/arm-none-eabi/4.8.4/../../../../arm-none-eabi/lib/armv6-m\libcr_c.a(scanf.o)
                0x00013db4                atoi
 .text.setvbuf  0x00013dcc       0x48 c:/nxp/lpcxpresso_7.5.0_254/lpcxpresso/tools/bin/../lib/gcc/arm-none-eabi/4.8.4/../../../../arm-none-eabi/lib/armv6-m\libcr_c.a(setvbuf.o)
                0x00013dcc                setvbuf
 .text.strchr   0x00013e14       0x14 c:/nxp/lpcxpresso_7.5.0_254/lpcxpresso/tools/bin/../lib/gcc/arm-none-eabi/4.8.4/../../../../arm-none-eabi/lib/armv6-m\libcr_c.a(strchr.o)
                0x00013e14                strchr
 .text.strcmp   0x00013e28       0x44 c:/nxp/lpcxpresso_7.5.0_254/lpcxpresso/tools/bin/../lib/gcc/arm-none-eabi/4.8.4/../../../../arm-none-eabi/lib/armv6-m\libcr_c.a(strcmp.o)
                0x00013e28                strcmp
 .text.strcpy   0x00013e6c       0x44 c:/nxp/lpcxpresso_7.5.0_254/lpcxpresso/tools/bin/../lib/gcc/arm-none-eabi/4.8.4/../../../../arm-none-eabi/lib/armv6-m\libcr_c.a(strcpy.o)
                0x00013e6c                strcpy
 .text.strlen   0x00013eb0       0x54 c:/nxp/lpcxpresso_7.5.0_254/lpcxpresso/tools/bin/../lib/gcc/arm-none-eabi/4.8.4/../../../../arm-none-eabi/lib/armv6-m\libcr_c.a(strlen.o)
                0x00013eb0                strlen
 .text.strncpy  0x00013f04       0x58 c:/nxp/lpcxpresso_7.5.0_254/lpcxpresso/tools/bin/../lib/gcc/arm-none-eabi/4.8.4/../../../../arm-none-eabi/lib/armv6-m\libcr_c.a(strncpy.o)
                0x00013f04                strncpy
 .text.strtok   0x00013f5c       0x44 c:/nxp/lpcxpresso_7.5.0_254/lpcxpresso/tools/bin/../lib/gcc/arm-none-eabi/4.8.4/../../../../arm-none-eabi/lib/armv6-m\libcr_c.a(strtok.o)
                0x00013f5c                strtok
 .text._sbrk    0x00013fa0       0x40 c:/nxp/lpcxpresso_7.5.0_254/lpcxpresso/tools/bin/../lib/gcc/arm-none-eabi/4.8.4/../../../../arm-none-eabi/lib/armv6-m\libcr_c.a(_cr_sbrk.o)
                0x00013fa0                _sbrk
 .text._deferredlazyseek
                0x00013fe0       0x44 c:/nxp/lpcxpresso_7.5.0_254/lpcxpresso/tools/bin/../lib/gcc/arm-none-eabi/4.8.4/../../../../arm-none-eabi/lib/armv6-m\libcr_c.a(_deferredlazyseek.o)
                0x00013fe0                _deferredlazyseek
 .text.__flsbuf
                0x00014024      0x154 c:/nxp/lpcxpresso_7.5.0_254/lpcxpresso/tools/bin/../lib/gcc/arm-none-eabi/4.8.4/../../../../arm-none-eabi/lib/armv6-m\libcr_c.a(_deferredlazyseek.o)
                0x00014024                __flsbuf
 .text._fdopen  0x00014178       0x68 c:/nxp/lpcxpresso_7.5.0_254/lpcxpresso/tools/bin/../lib/gcc/arm-none-eabi/4.8.4/../../../../arm-none-eabi/lib/armv6-m\libcr_c.a(_fdopen.o)
                0x00014178                _fdopen
 .text._fflush  0x000141e0       0x64 c:/nxp/lpcxpresso_7.5.0_254/lpcxpresso/tools/bin/../lib/gcc/arm-none-eabi/4.8.4/../../../../arm-none-eabi/lib/armv6-m\libcr_c.a(_fflush.o)
                0x000141e0                _fflush
 *fill*         0x00014244        0x4 
 .text._frexpl  0x00014248       0x80 c:/nxp/lpcxpresso_7.5.0_254/lpcxpresso/tools/bin/../lib/gcc/arm-none-eabi/4.8.4/../../../../arm-none-eabi/lib/armv6-m\libcr_c.a(_frexpl.o)
                0x00014248                _frexpl
 .text._ldexpl  0x000142c8       0x60 c:/nxp/lpcxpresso_7.5.0_254/lpcxpresso/tools/bin/../lib/gcc/arm-none-eabi/4.8.4/../../../../arm-none-eabi/lib/armv6-m\libcr_c.a(_ldexpl.o)
                0x000142c8                _ldexpl
 .text._Cwritebuf
                0x00014328       0x6c c:/nxp/lpcxpresso_7.5.0_254/lpcxpresso/tools/bin/../lib/gcc/arm-none-eabi/4.8.4/../../../../arm-none-eabi/lib/armv6-m\libcr_c.a(_writebuf.o)
                0x00014328                _Cwritebuf
 .text.fclose   0x00014394       0x70 c:/nxp/lpcxpresso_7.5.0_254/lpcxpresso/tools/bin/../lib/gcc/arm-none-eabi/4.8.4/../../../../arm-none-eabi/lib/armv6-m\libcr_c.a(fclose.o)
                0x00014394                fclose
 .text.fflush   0x00014404       0x34 c:/nxp/lpcxpresso_7.5.0_254/lpcxpresso/tools/bin/../lib/gcc/arm-none-eabi/4.8.4/../../../../arm-none-eabi/lib/armv6-m\libcr_c.a(fflush.o)
                0x00014404                fflush
 .text.fseek    0x00014438       0xf8 c:/nxp/lpcxpresso_7.5.0_254/lpcxpresso/tools/bin/../lib/gcc/arm-none-eabi/4.8.4/../../../../arm-none-eabi/lib/armv6-m\libcr_c.a(fseek.o)
                0x00014438                fseek
 .text.ftell    0x00014530       0x4c c:/nxp/lpcxpresso_7.5.0_254/lpcxpresso/tools/bin/../lib/gcc/arm-none-eabi/4.8.4/../../../../arm-none-eabi/lib/armv6-m\libcr_c.a(ftell.o)
                0x00014530                ftell
 .text.remove   0x0001457c       0x12 c:/nxp/lpcxpresso_7.5.0_254/lpcxpresso/tools/bin/../lib/gcc/arm-none-eabi/4.8.4/../../../../arm-none-eabi/lib/armv6-m\libcr_c.a(remove.o)
                0x0001457c                remove
 .text.strcspn  0x0001458e       0x22 c:/nxp/lpcxpresso_7.5.0_254/lpcxpresso/tools/bin/../lib/gcc/arm-none-eabi/4.8.4/../../../../arm-none-eabi/lib/armv6-m\libcr_c.a(strcspn.o)
                0x0001458e                strcspn
 .text.strspn   0x000145b0       0x22 c:/nxp/lpcxpresso_7.5.0_254/lpcxpresso/tools/bin/../lib/gcc/arm-none-eabi/4.8.4/../../../../arm-none-eabi/lib/armv6-m\libcr_c.a(strspn.o)
                0x000145b0                strspn
 *fill*         0x000145d2        0x2 
 .text.__check_heap_overflow
                0x000145d4       0x18 c:/nxp/lpcxpresso_7.5.0_254/lpcxpresso/tools/bin/../lib/gcc/arm-none-eabi/4.8.4/../../../../arm-none-eabi/lib/armv6-m\libcr_c.a(_cr_check_heap.o)
                0x000145d4                __check_heap_overflow
 .text._do_fflush
                0x000145ec       0x48 c:/nxp/lpcxpresso_7.5.0_254/lpcxpresso/tools/bin/../lib/gcc/arm-none-eabi/4.8.4/../../../../arm-none-eabi/lib/armv6-m\libcr_c.a(_do_fflush.o)
                0x000145ec                _do_fflush
 *fill*         0x00014634        0x4 
 .text.__aeabi_dmul
                0x00014638      0x188 c:/nxp/lpcxpresso_7.5.0_254/lpcxpresso/tools/bin/../lib/gcc/arm-none-eabi/4.8.4/armv6-m\libcr_eabihelpers.a(double.o)
                0x00014638                __aeabi_dmul
 .text.__aeabi_ddiv
                0x000147c0      0x160 c:/nxp/lpcxpresso_7.5.0_254/lpcxpresso/tools/bin/../lib/gcc/arm-none-eabi/4.8.4/armv6-m\libcr_eabihelpers.a(double.o)
                0x000147c0                __aeabi_ddiv
 .text.__aeabi_dsub
                0x00014920      0x1e8 c:/nxp/lpcxpresso_7.5.0_254/lpcxpresso/tools/bin/../lib/gcc/arm-none-eabi/4.8.4/armv6-m\libcr_eabihelpers.a(double.o)
                0x00014920                __aeabi_dsub
 .text.__aeabi_dadd
                0x00014b08      0x148 c:/nxp/lpcxpresso_7.5.0_254/lpcxpresso/tools/bin/../lib/gcc/arm-none-eabi/4.8.4/armv6-m\libcr_eabihelpers.a(double.o)
                0x00014b08                __aeabi_dadd
 .text.__aeabi_d2iz
                0x00014c50       0x48 c:/nxp/lpcxpresso_7.5.0_254/lpcxpresso/tools/bin/../lib/gcc/arm-none-eabi/4.8.4/armv6-m\libcr_eabihelpers.a(double.o)
                0x00014c50                __aeabi_d2iz
 .text.__bhs_ui2d
                0x00014c98       0x5e c:/nxp/lpcxpresso_7.5.0_254/lpcxpresso/tools/bin/../lib/gcc/arm-none-eabi/4.8.4/armv6-m\libcr_eabihelpers.a(double.o)
                0x00014c98                __bhs_ui2d
 .text.__aeabi_i2d
                0x00014cf6       0x16 c:/nxp/lpcxpresso_7.5.0_254/lpcxpresso/tools/bin/../lib/gcc/arm-none-eabi/4.8.4/armv6-m\libcr_eabihelpers.a(double.o)
                0x00014cf6                __aeabi_i2d
 .text.__aeabi_dcmpeq
                0x00014d0c       0x38 c:/nxp/lpcxpresso_7.5.0_254/lpcxpresso/tools/bin/../lib/gcc/arm-none-eabi/4.8.4/armv6-m\libcr_eabihelpers.a(double.o)
                0x00014d0c                __aeabi_dcmpeq
 .text.__aeabi_dcmplt
                0x00014d44       0x78 c:/nxp/lpcxpresso_7.5.0_254/lpcxpresso/tools/bin/../lib/gcc/arm-none-eabi/4.8.4/armv6-m\libcr_eabihelpers.a(double.o)
                0x00014d44                __aeabi_dcmplt
 .text.__aeabi_dcmple
                0x00014dbc       0x78 c:/nxp/lpcxpresso_7.5.0_254/lpcxpresso/tools/bin/../lib/gcc/arm-none-eabi/4.8.4/armv6-m\libcr_eabihelpers.a(double.o)
                0x00014dbc                __aeabi_dcmple
 .text.__aeabi_dcmpge
                0x00014e34       0x70 c:/nxp/lpcxpresso_7.5.0_254/lpcxpresso/tools/bin/../lib/gcc/arm-none-eabi/4.8.4/armv6-m\libcr_eabihelpers.a(double.o)
                0x00014e34                __aeabi_dcmpge
 .text.__aeabi_llong_lmul
                0x00014ea4       0x2e c:/nxp/lpcxpresso_7.5.0_254/lpcxpresso/tools/bin/../lib/gcc/arm-none-eabi/4.8.4/armv6-m\libcr_eabihelpers.a(llong.o)
                0x00014ea4                __aeabi_lmul
 .text.__aeabi_memcpy
                0x00014ed2       0x2c c:/nxp/lpcxpresso_7.5.0_254/lpcxpresso/tools/bin/../lib/gcc/arm-none-eabi/4.8.4/armv6-m\libcr_eabihelpers.a(memcpy.o)
                0x00014ed2                __aeabi_memcpy4
                0x00014ed2                __aeabi_memcpy8
                0x00014ed2                __aeabi_memcpy
 .text.__aeabi_memset_lowlevel
                0x00014efe       0x2a c:/nxp/lpcxpresso_7.5.0_254/lpcxpresso/tools/bin/../lib/gcc/arm-none-eabi/4.8.4/armv6-m\libcr_eabihelpers.a(memcpy.o)
                0x00014efe                __aeabi_lowlevel_memset
 .text.__sys_appexit
                0x00014f28        0x2 c:/nxp/lpcxpresso_7.5.0_254/lpcxpresso/tools/bin/../lib/gcc/arm-none-eabi/4.8.4/../../../../arm-none-eabi/lib/armv6-m\libcr_nohost.a(__sys_appexit.o)
                0x00014f28                __sys_appexit
                0x00014f28                __exit
 .text.__sys_close
                0x00014f2a        0x6 c:/nxp/lpcxpresso_7.5.0_254/lpcxpresso/tools/bin/../lib/gcc/arm-none-eabi/4.8.4/../../../../arm-none-eabi/lib/armv6-m\libcr_nohost.a(__sys_close.o)
                0x00014f2a                __sys_close
 .text.__sys_flen
                0x00014f30        0x6 c:/nxp/lpcxpresso_7.5.0_254/lpcxpresso/tools/bin/../lib/gcc/arm-none-eabi/4.8.4/../../../../arm-none-eabi/lib/armv6-m\libcr_nohost.a(__sys_flen.o)
                0x00014f30                __sys_flen
 .text.__sys_istty
                0x00014f36        0x6 c:/nxp/lpcxpresso_7.5.0_254/lpcxpresso/tools/bin/../lib/gcc/arm-none-eabi/4.8.4/../../../../arm-none-eabi/lib/armv6-m\libcr_nohost.a(__sys_istty.o)
                0x00014f36                __sys_istty
 .text.__sys_remove
                0x00014f3c        0x6 c:/nxp/lpcxpresso_7.5.0_254/lpcxpresso/tools/bin/../lib/gcc/arm-none-eabi/4.8.4/../../../../arm-none-eabi/lib/armv6-m\libcr_nohost.a(__sys_remove.o)
                0x00014f3c                __sys_remove
 .text.__sys_seek
                0x00014f42        0x6 c:/nxp/lpcxpresso_7.5.0_254/lpcxpresso/tools/bin/../lib/gcc/arm-none-eabi/4.8.4/../../../../arm-none-eabi/lib/armv6-m\libcr_nohost.a(__sys_seek.o)
                0x00014f42                __sys_seek
 .text.__sys_tmpnam
                0x00014f48        0x6 c:/nxp/lpcxpresso_7.5.0_254/lpcxpresso/tools/bin/../lib/gcc/arm-none-eabi/4.8.4/../../../../arm-none-eabi/lib/armv6-m\libcr_nohost.a(__sys_tmpnam.o)
                0x00014f48                __sys_tmpnam
 *(.rodata .rodata.* .constdata .constdata.*)
 *fill*         0x00014f4e        0x2 
 .rodata.aucCRCLo
                0x00014f50      0x100 ./src/modbus/mbcrc.o
 .rodata.aucCRCHi
                0x00015050      0x100 ./src/modbus/mbcrc.o
 .rodata.s2e_run
                0x00015150       0xa0 ./src/S2E/S2E.o
 .rodata.str1.4
                0x000151f0       0x18 ./src/S2E/S2E.o
 .rodata        0x00015208       0x10 ./src/PlatformHandler/sspHandler.o
 .rodata.parseDNSMSG
                0x00015218       0x40 ./src/Internet/DNS/dns.o
 .rodata.DHCP_run
                0x00015258       0x14 ./src/Internet/DHCP/dhcp.o
 .rodata.str1.4
                0x0001526c       0x12 ./src/Internet/DHCP/dhcp.o
                                 0x14 (size before relaxing)
 *fill*         0x0001527e        0x2 
 .rodata.ctlsocket
                0x00015280       0x20 ./src/Ethernet/socket.o
 .rodata.getsockopt
                0x000152a0       0x34 ./src/Ethernet/socket.o
 .rodata.ctlnetwork
                0x000152d4       0x18 ./src/Ethernet/wizchip_conf.o
 .rodata.ctlwizchip
                0x000152ec       0x40 ./src/Ethernet/wizchip_conf.o
 .rodata        0x0001532c       0x28 ./src/Configuration/ConfigData.o
 .rodata.do_udp_config
                0x00015354       0x14 ./src/Configuration/ConfigMessage.o
 .rodata.str1.4
                0x00015368        0x6 ./src/ATcmd/library/sockutil.o
                                  0x8 (size before relaxing)
 *fill*         0x0001536e        0x2 
 .rodata.cmd_resp
                0x00015370       0x74 ./src/ATcmd/atcmd.o
 .rodata.__FUNCTION__.6918
                0x000153e4        0xc ./src/ATcmd/atcmd.o
 .rodata.__FUNCTION__.6891
                0x000153f0        0xc ./src/ATcmd/atcmd.o
 .rodata.__FUNCTION__.7011
                0x000153fc        0xc ./src/ATcmd/atcmd.o
 .rodata.__FUNCTION__.6898
                0x00015408        0xc ./src/ATcmd/atcmd.o
 .rodata.__FUNCTION__.6927
                0x00015414        0xc ./src/ATcmd/atcmd.o
 .rodata.__FUNCTION__.6941
                0x00015420        0xc ./src/ATcmd/atcmd.o
 .rodata.__FUNCTION__.7023
                0x0001542c        0xc ./src/ATcmd/atcmd.o
 .rodata.__FUNCTION__.6933
                0x00015438        0xc ./src/ATcmd/atcmd.o
 .rodata.__FUNCTION__.7028
                0x00015444        0xc ./src/ATcmd/atcmd.o
 .rodata.__FUNCTION__.6796
                0x00015450       0x10 ./src/ATcmd/atcmd.o
 .rodata.__FUNCTION__.6879
                0x00015460        0xc ./src/ATcmd/atcmd.o
 .rodata.g_cmd_table
                0x0001546c      0x140 ./src/ATcmd/atcmd.o
                0x0001546c                g_cmd_table
 .rodata.__FUNCTION__.6968
                0x000155ac        0xc ./src/ATcmd/atcmd.o
 .rodata.__FUNCTION__.6974
                0x000155b8        0xc ./src/ATcmd/atcmd.o
 .rodata.__FUNCTION__.6840
                0x000155c4        0xc ./src/ATcmd/atcmd.o
 .rodata.__FUNCTION__.6947
                0x000155d0        0xc ./src/ATcmd/atcmd.o
 .rodata.__FUNCTION__.6993
                0x000155dc        0xc ./src/ATcmd/atcmd.o
 .rodata.__FUNCTION__.6909
                0x000155e8        0xc ./src/ATcmd/atcmd.o
 .rodata.str1.4
                0x000155f4      0x20d ./src/ATcmd/atcmd.o
                                0x214 (size before relaxing)
 *fill*         0x00015801        0x3 
 .rodata.act_nset_q
                0x00015804       0x1c ./src/ATcmd/cmdrun.o
 .rodata.act_nstat
                0x00015820       0x1c ./src/ATcmd/cmdrun.o
 .rodata.atc_async_cb
                0x0001583c      0x104 ./src/ATcmd/cmdrun.o
 .rodata.act_uart_q
                0x00015940       0x18 ./src/ATcmd/cmdrun.o
 .rodata.__FUNCTION__.6920
                0x00015958        0xc ./src/ATcmd/cmdrun.o
 .rodata.__FUNCTION__.6893
                0x00015964        0xc ./src/ATcmd/cmdrun.o
 .rodata.str1.4
                0x00015970      0x214 ./src/ATcmd/cmdrun.o
                                0x220 (size before relaxing)
 .rodata.__FUNCTION__.6783
                0x00015b84       0x10 ./src/ATcmd/cmdrun.o
 .rodata.__FUNCTION__.6872
                0x00015b94        0xc ./src/ATcmd/cmdrun.o
 .rodata.ledports
                0x00015ba0        0x2 C:\Users\boomw\Documents\lpcxpresso-workspace-wiz550s2e\wiznet_s2e_wiz550s2e_board\Release\libwiznet_s2e_wiz550s2e_board.a(board.o)
 *fill*         0x00015ba2        0x2 
 .rodata.OscRateIn
                0x00015ba4        0x4 C:\Users\boomw\Documents\lpcxpresso-workspace-wiz550s2e\wiznet_s2e_wiz550s2e_board\Release\libwiznet_s2e_wiz550s2e_board.a(board.o)
                0x00015ba4                OscRateIn
 .rodata.ledpins
                0x00015ba8        0x2 C:\Users\boomw\Documents\lpcxpresso-workspace-wiz550s2e\wiznet_s2e_wiz550s2e_board\Release\libwiznet_s2e_wiz550s2e_board.a(board.o)
 *fill*         0x00015baa        0x2 
 .rodata.pinmuxing
                0x00015bac       0x50 C:\Users\boomw\Documents\lpcxpresso-workspace-wiz550s2e\wiznet_s2e_wiz550s2e_board\Release\libwiznet_s2e_wiz550s2e_board.a(board_sysinit.o)
 .rodata.wdtOSCRate
                0x00015bfc       0x40 C:\Users\boomw\Documents\lpcxpresso-workspace-wiz550s2e\lpc_chip_11exx\Release\liblpc_chip_11exx.a(clock_11xx.o)
 .rodata.str1.1
                0x00015c3c       0x18 c:/nxp/lpcxpresso_7.5.0_254/lpcxpresso/tools/bin/../lib/gcc/arm-none-eabi/4.8.4/../../../../arm-none-eabi/lib/armv6-m\libcr_c.a(alloc.o)
 .rodata.__ctype
                0x00015c54      0x180 c:/nxp/lpcxpresso_7.5.0_254/lpcxpresso/tools/bin/../lib/gcc/arm-none-eabi/4.8.4/../../../../arm-none-eabi/lib/armv6-m\libcr_c.a(ctype.o)
                0x00015c54                __ctype
 .rodata.str1.1
                0x00015dd4       0x34 c:/nxp/lpcxpresso_7.5.0_254/lpcxpresso/tools/bin/../lib/gcc/arm-none-eabi/4.8.4/../../../../arm-none-eabi/lib/armv6-m\libcr_c.a(fpprintf.o)
                                 0x35 (size before relaxing)
 .rodata.str1.1
                0x00015e08        0x4 c:/nxp/lpcxpresso_7.5.0_254/lpcxpresso/tools/bin/../lib/gcc/arm-none-eabi/4.8.4/../../../../arm-none-eabi/lib/armv6-m\libcr_c.a(initio.o)
 .rodata.str1.1
                0x00015e0c       0x31 c:/nxp/lpcxpresso_7.5.0_254/lpcxpresso/tools/bin/../lib/gcc/arm-none-eabi/4.8.4/../../../../arm-none-eabi/lib/armv6-m\libcr_c.a(printf.o)
                                 0x38 (size before relaxing)
 .rodata.str1.1
                0x00000000        0x1 c:/nxp/lpcxpresso_7.5.0_254/lpcxpresso/tools/bin/../lib/gcc/arm-none-eabi/4.8.4/../../../../arm-none-eabi/lib/armv6-m\libcr_c.a(strtok.o)
 *fill*         0x00015e3d        0x3 
 .rodata.__huge_vall
                0x00015e40        0x8 c:/nxp/lpcxpresso_7.5.0_254/lpcxpresso/tools/bin/../lib/gcc/arm-none-eabi/4.8.4/../../../../arm-none-eabi/lib/armv6-m\libcr_c.a(_hugeval.o)
                0x00015e40                __huge_vall
                0x00015e48                . = ALIGN (0x4)

.glue_7         0x00015e48        0x0
 .glue_7        0x00000000        0x0 linker stubs

.glue_7t        0x00015e48        0x0
 .glue_7t       0x00000000        0x0 linker stubs

.vfp11_veneer   0x00015e48        0x0
 .vfp11_veneer  0x00000000        0x0 linker stubs

.v4_bx          0x00015e48        0x0
 .v4_bx         0x00000000        0x0 linker stubs

.iplt           0x00015e48        0x0
 .iplt          0x00000000        0x0 ./src/netutil/netutil.o

.rel.dyn        0x00015e48        0x0
 .rel.iplt      0x00000000        0x0 ./src/netutil/netutil.o

.ARM.extab
 *(.ARM.extab* .gnu.linkonce.armextab.*)
                0x00015e48                __exidx_start = .

.ARM.exidx
 *(.ARM.exidx* .gnu.linkonce.armexidx.*)
                0x00015e48                __exidx_end = .
                0x00015e48                _etext = .

.data_RAM2      0x20000000        0x0 load address 0x00015e48
 FILL mask 0xff
 *(.data.$RAM2*)
 *(.data.$RamPeriph2*)
                0x20000000                . = ALIGN (0x4)

.data_RAM3      0x20004000        0x0 load address 0x00015e48
 FILL mask 0xff
 *(.data.$RAM3*)
 *(.data.$SRAM1_2*)
                0x20004000                . = ALIGN (0x4)

.uninit_RESERVED
                0x10000000        0x0
 *(.bss.$RESERVED*)
                0x10000000                . = ALIGN (0x4)
                0x10000000                _end_uninit_RESERVED = .

.data           0x10000000      0x15c load address 0x00015e48
 FILL mask 0xff
                0x10000000                _data = .
 *(vtable)
 vtable         0x10000000       0xd0 ./src/main.o
 *(.data*)
 .data.ucASCIIBuf
                0x100000d0        0x4 ./src/modbus/mbascii.o
                0x100000d0                ucASCIIBuf
 .data.udp_port
                0x100000d4        0x2 ./src/S2E/S2E.o
 *fill*         0x100000d6        0x2 
 .data.baud_table
                0x100000d8       0x2c ./src/PlatformHandler/uartHandler.o
                0x100000d8                baud_table
 .data.dhcp_tick_next
                0x10000104        0x4 ./src/Internet/DHCP/dhcp.o
                0x10000104                dhcp_tick_next
 .data.dhcp_ip_update
                0x10000108        0x4 ./src/Internet/DHCP/dhcp.o
                0x10000108                dhcp_ip_update
 .data.dhcp_ip_assign
                0x1000010c        0x4 ./src/Internet/DHCP/dhcp.o
                0x1000010c                dhcp_ip_assign
 .data.dhcp_ip_conflict
                0x10000110        0x4 ./src/Internet/DHCP/dhcp.o
                0x10000110                dhcp_ip_conflict
 .data.dhcp_lease_time
                0x10000114        0x4 ./src/Internet/DHCP/dhcp.o
                0x10000114                dhcp_lease_time
 .data.HOST_NAME
                0x10000118        0x8 ./src/Internet/DHCP/dhcp.o
                0x10000118                HOST_NAME
 .data.sock_any_port
                0x10000120        0x2 ./src/Ethernet/socket.o
 *fill*         0x10000122        0x2 
 .data.WIZCHIP  0x10000124       0x28 ./src/Ethernet/wizchip_conf.o
                0x10000124                WIZCHIP
 .data.client_port
                0x1000014c        0x2 ./src/ATcmd/atcmd.o
 *fill*         0x1000014e        0x2 
 .data.parity_char
                0x10000150        0x4 ./src/ATcmd/cmdrun.o
                0x10000150                parity_char
 .data.run_dns  0x10000154        0x1 ./src/main.o
                0x10000154                run_dns
 *fill*         0x10000155        0x3 
 .data.saves1.3850
                0x10000158        0x4 c:/nxp/lpcxpresso_7.5.0_254/lpcxpresso/tools/bin/../lib/gcc/arm-none-eabi/4.8.4/../../../../arm-none-eabi/lib/armv6-m\libcr_c.a(strtok.o)
                0x1000015c                . = ALIGN (0x4)
                0x1000015c                _edata = .

.igot.plt       0x1000015c        0x0 load address 0x00015fa4
 .igot.plt      0x00000000        0x0 ./src/netutil/netutil.o

.bss_RAM2       0x20000000        0x0
 *(.bss.$RAM2*)
 *(.bss.$RamPeriph2*)
                0x20000000                . = ALIGN (0x4)

.bss_RAM3       0x20004000        0x0
 *(.bss.$RAM3*)
 *(.bss.$SRAM1_2*)
                0x20004000                . = ALIGN (0x4)

.bss            0x1000015c     0x16a8
                0x1000015c                _bss = .
 *(.bss*)
 .bss.eRcvState
                0x1000015c        0x1 ./src/modbus/mbascii.o
 *fill*         0x1000015d        0x1 
 .bss.usRcvBufferPos
                0x1000015e        0x2 ./src/modbus/mbrtu.o
 .bss.aucTCPBuf
                0x10000160      0x108 ./src/modbus/mbtcp.o
 .bss.ether_send_cnt
                0x10000268        0x4 ./src/S2E/S2E.o
                0x10000268                ether_send_cnt
 .bss.pattern_offset
                0x1000026c        0x4 ./src/S2E/S2E.o
 .bss.ether_recv_cnt
                0x10000270        0x4 ./src/S2E/S2E.o
                0x10000270                ether_recv_cnt
 .bss.prev_len.6527
                0x10000274        0x2 ./src/S2E/S2E.o
 *fill*         0x10000276        0x2 
 .bss.pattern_cnt
                0x10000278        0x4 ./src/S2E/S2E.o
 .bss.mixed_state
                0x1000027c        0x4 ./src/S2E/S2E.o
 .bss.uart_send_cnt
                0x10000280        0x4 ./src/S2E/S2E.o
                0x10000280                uart_send_cnt
 .bss.uart_size_prev
                0x10000284        0x4 ./src/S2E/S2E.o
 .bss.ready_cnt
                0x10000288        0x4 ./src/S2E/S2E.o
 .bss.trigger_state
                0x1000028c        0x4 ./src/S2E/S2E.o
 .bss.uart_recv_cnt
                0x10000290        0x4 ./src/S2E/S2E.o
                0x10000290                uart_recv_cnt
 .bss.trigger_time
                0x10000294        0x4 ./src/PlatformHandler/timerHandler.o
                0x10000294                trigger_time
 .bss.inactive_time
                0x10000298        0x4 ./src/PlatformHandler/timerHandler.o
                0x10000298                inactive_time
 .bss.nagle_time
                0x1000029c        0x4 ./src/PlatformHandler/timerHandler.o
                0x1000029c                nagle_time
 .bss.sec_cnt   0x100002a0        0x4 ./src/PlatformHandler/timerHandler.o
 .bss.factory_time
                0x100002a4        0x4 ./src/PlatformHandler/timerHandler.o
                0x100002a4                factory_time
 .bss.nagle_flag
                0x100002a8        0x1 ./src/PlatformHandler/timerHandler.o
                0x100002a8                nagle_flag
 *fill*         0x100002a9        0x3 
 .bss.uart_recv_count
                0x100002ac        0x4 ./src/PlatformHandler/timerHandler.o
                0x100002ac                uart_recv_count
 .bss.inactive_flag
                0x100002b0        0x1 ./src/PlatformHandler/timerHandler.o
                0x100002b0                inactive_flag
 *fill*         0x100002b1        0x3 
 .bss.reconn_time
                0x100002b4        0x4 ./src/PlatformHandler/timerHandler.o
                0x100002b4                reconn_time
 .bss.reconn_flag
                0x100002b8        0x1 ./src/PlatformHandler/timerHandler.o
                0x100002b8                reconn_flag
 *fill*         0x100002b9        0x3 
 .bss.keepsend_time
                0x100002bc        0x4 ./src/PlatformHandler/timerHandler.o
                0x100002bc                keepsend_time
 .bss.keepsend_flag
                0x100002c0        0x1 ./src/PlatformHandler/timerHandler.o
                0x100002c0                keepsend_flag
 *fill*         0x100002c1        0x3 
 .bss.mill_cnt  0x100002c4        0x4 ./src/PlatformHandler/timerHandler.o
 .bss.auth_time
                0x100002c8        0x4 ./src/PlatformHandler/timerHandler.o
                0x100002c8                auth_time
 .bss.trigger_flag
                0x100002cc        0x1 ./src/PlatformHandler/timerHandler.o
                0x100002cc                trigger_flag
 .bss.auth_flag
                0x100002cd        0x1 ./src/PlatformHandler/timerHandler.o
                0x100002cd                auth_flag
 *fill*         0x100002ce        0x2 
 .bss.txbuff    0x100002d0      0x400 ./src/PlatformHandler/uartHandler.o
 .bss.rxbuff    0x100006d0      0x400 ./src/PlatformHandler/uartHandler.o
 .bss.retry_count.4385
                0x10000ad0        0x1 ./src/Internet/DNS/dns.o
 .bss.dhcp_state
                0x10000ad1        0x1 ./src/Internet/DHCP/dhcp.o
                0x10000ad1                dhcp_state
 *fill*         0x10000ad2        0x2 
 .bss.DHCP_allocated_sn
                0x10000ad4        0x4 ./src/Internet/DHCP/dhcp.o
                0x10000ad4                DHCP_allocated_sn
 .bss.OLD_allocated_ip
                0x10000ad8        0x4 ./src/Internet/DHCP/dhcp.o
                0x10000ad8                OLD_allocated_ip
 .bss.DHCP_allocated_gw
                0x10000adc        0x4 ./src/Internet/DHCP/dhcp.o
                0x10000adc                DHCP_allocated_gw
 .bss.DHCP_allocated_ip
                0x10000ae0        0x4 ./src/Internet/DHCP/dhcp.o
                0x10000ae0                DHCP_allocated_ip
 .bss.dhcp_tick_1s
                0x10000ae4        0x4 ./src/Internet/DHCP/dhcp.o
                0x10000ae4                dhcp_tick_1s
 .bss.DHCP_allocated_dns
                0x10000ae8        0x4 ./src/Internet/DHCP/dhcp.o
                0x10000ae8                DHCP_allocated_dns
 .bss.dhcp_retry_count
                0x10000aec        0x1 ./src/Internet/DHCP/dhcp.o
                0x10000aec                dhcp_retry_count
 *fill*         0x10000aed        0x1 
 .bss.sock_io_mode
                0x10000aee        0x2 ./src/Ethernet/socket.o
 .bss.sock_is_sending
                0x10000af0        0x2 ./src/Ethernet/socket.o
 *fill*         0x10000af2        0x2 
 .bss.sock_pack_info
                0x10000af4        0x8 ./src/Ethernet/socket.o
                0x10000af4                sock_pack_info
 .bss.sock_remained_size
                0x10000afc       0x10 ./src/Ethernet/socket.o
 .bss._DHCP_    0x10000b0c        0x1 ./src/Ethernet/wizchip_conf.o
 *fill*         0x10000b0d        0x3 
 .bss._DNS_     0x10000b10        0x4 ./src/Ethernet/wizchip_conf.o
 .bss.s2e_packet
                0x10000b14       0xa4 ./src/Configuration/ConfigData.o
 .bss.checkAtcUdpSendStatus
                0x10000bb8        0x4 ./src/ATcmd/library/sockutil.o
                0x10000bb8                checkAtcUdpSendStatus
 .bss.watch_cb  0x10000bbc        0x4 ./src/ATcmd/library/sockutil.o
 .bss.watch_sock
                0x10000bc0        0x4 ./src/ATcmd/library/sockutil.o
 .bss.previdx   0x10000bc4        0x1 ./src/ATcmd/atcmd.o
 *fill*         0x10000bc5        0x3 
 .bss.termbuf   0x10000bc8       0x64 ./src/ATcmd/atcmd.o
 .bss.buflen.6786
                0x10000c2c        0x1 ./src/ATcmd/atcmd.o
 *fill*         0x10000c2d        0x3 
 .bss.prevbuf   0x10000c30        0x8 ./src/ATcmd/atcmd.o
 .bss.prevcnt   0x10000c38        0x1 ./src/ATcmd/atcmd.o
 *fill*         0x10000c39        0x1 
 .bss.prevlen   0x10000c3a        0x2 ./src/ATcmd/atcmd.o
 .bss.sockstat  0x10000c3c        0x4 ./src/ATcmd/cmdrun.o
 .bss.sockbusy  0x10000c40        0x4 ./src/ATcmd/cmdrun.o
 .bss.recvflag  0x10000c44        0x4 ./src/ATcmd/cmdrun.o
 .bss.udpport   0x10000c48        0x4 ./src/ATcmd/cmdrun.o
 .bss.udpip     0x10000c4c        0x8 ./src/ATcmd/cmdrun.o
 .bss.sockport  0x10000c54        0x4 ./src/ATcmd/cmdrun.o
 .bss.factory_flag
                0x10000c58        0x1 C:\Users\boomw\Documents\lpcxpresso-workspace-wiz550s2e\wiznet_s2e_wiz550s2e_board\Release\libwiznet_s2e_wiz550s2e_board.a(board.o)
                0x10000c58                factory_flag
 *fill*         0x10000c59        0x3 
 .bss.errno     0x10000c5c        0x4 c:/nxp/lpcxpresso_7.5.0_254/lpcxpresso/tools/bin/../lib/gcc/arm-none-eabi/4.8.4/../../../../arm-none-eabi/lib/armv6-m\libcr_c.a(errno.o)
                0x10000c5c                errno
 *(COMMON)
 COMMON         0x10000c60        0x8 ./src/modbus/mbascii.o
                0x10000c60                usASCIIBufferPos
                0x10000c62                mb_state_ascii_finish
                0x10000c64                pucASCIIBufferCur
 COMMON         0x10000c68      0x108 ./src/modbus/mbrtu.o
                0x10000c68                ucRTUBuf
                0x10000d68                usTCPBufferPos
                0x10000d6c                pucTCPBufferCur
 COMMON         0x10000d70        0x8 ./src/modbus/mbtcp.o
                0x10000d70                mbTCPtid2
                0x10000d71                mbTCPtid1
                0x10000d72                usRTUBufferPos
                0x10000d74                pucRTUBufferCur
 COMMON         0x10000d78        0x2 ./src/modbus/mbtimer.o
                0x10000d78                mb_state_rtu_finish
                0x10000d79                eRcvState
 *fill*         0x10000d7a        0x2 
 COMMON         0x10000d7c        0x8 ./src/PlatformHandler/timerHandler.o
                0x10000d7c                ether_send_prev
                0x10000d80                ether_recv_prev
 COMMON         0x10000d84       0x28 ./src/PlatformHandler/uartHandler.o
                0x10000d84                txring
                0x10000d98                rxring
 COMMON         0x10000dac        0xe ./src/Internet/DNS/dns.o
                0x10000dac                DNS_SOCKET
                0x10000db0                dns_1s_tick
                0x10000db4                pDNSMSG
                0x10000db8                DNS_MSGID
 *fill*         0x10000dba        0x2 
 COMMON         0x10000dbc       0x15 ./src/Internet/DHCP/dhcp.o
                0x10000dbc                DHCP_CHADDR
                0x10000dc4                DHCP_XID
                0x10000dc8                DHCP_SIP
                0x10000dcc                pDHCPMSG
                0x10000dd0                DHCP_SOCKET
 *fill*         0x10000dd1        0x3 
 COMMON         0x10000dd4       0xd4 ./src/ATcmd/atcmd.o
                0x10000dd4                atci
 COMMON         0x10000ea8        0x8 ./src/cr_startup_lpc11exx.o
                0x10000ea8                pDivRom_uidiv
                0x10000eac                pDivRom_idiv
 COMMON         0x10000eb0      0x804 ./src/main.o
                0x10000eb0                op_mode
                0x10000eb4                g_send_buf
                0x100012b4                g_recv_buf
 COMMON         0x100016b4        0x4 C:\Users\boomw\Documents\lpcxpresso-workspace-wiz550s2e\lpc_chip_11exx\Release\liblpc_chip_11exx.a(chip_11xx.o)
                0x100016b4                SystemCoreClock
 COMMON         0x100016b8        0x4 c:/nxp/lpcxpresso_7.5.0_254/lpcxpresso/tools/bin/../lib/gcc/arm-none-eabi/4.8.4/../../../../arm-none-eabi/lib/armv6-m\libcr_c.a(initio.o)
                0x100016b8                _extra
 COMMON         0x100016bc      0x140 c:/nxp/lpcxpresso_7.5.0_254/lpcxpresso/tools/bin/../lib/gcc/arm-none-eabi/4.8.4/../../../../arm-none-eabi/lib/armv6-m\libcr_c.a(stdio.o)
                0x100016bc                __Ciob
 COMMON         0x100017fc        0x8 c:/nxp/lpcxpresso_7.5.0_254/lpcxpresso/tools/bin/../lib/gcc/arm-none-eabi/4.8.4/../../../../arm-none-eabi/lib/armv6-m\libcr_c.a(__init_alloc.o)
                0x100017fc                __heaps
                0x10001800                __end_of_heap
                0x10001804                . = ALIGN (0x4)
                0x10001804                _ebss = .
                0x10001804                PROVIDE (end, .)

.noinit_RAM2    0x20000000        0x0
 *(.noinit.$RAM2*)
 *(.noinit.$RamPeriph2*)
                0x20000000                . = ALIGN (0x4)

.noinit_RAM3    0x20004000        0x0
 *(.noinit.$RAM3*)
 *(.noinit.$SRAM1_2*)
                0x20004000                . = ALIGN (0x4)

.noinit         0x10001804        0x0
                0x10001804                _noinit = .
 *(.noinit*)
                0x10001804                . = ALIGN (0x4)
                0x10001804                _end_noinit = .
                0x10001804                PROVIDE (_pvHeapStart, .)
                0x10002000                PROVIDE (_vStackTop, (__top_RamLoc8 - 0x0))
OUTPUT(WIZ550S2E_App.axf elf32-littlearm)

.debug_info     0x00000000    0x20574
 .debug_info    0x00000000      0x66c ./src/modbus/mb.o
 .debug_info    0x0000066c      0x436 ./src/modbus/mbascii.o
 .debug_info    0x00000aa2      0x160 ./src/modbus/mbcrc.o
 .debug_info    0x00000c02      0x364 ./src/modbus/mbrtu.o
 .debug_info    0x00000f66      0x920 ./src/modbus/mbtcp.o
 .debug_info    0x00001886      0x7a8 ./src/modbus/mbtimer.o
 .debug_info    0x0000202e      0x611 ./src/callback/dhcp_cb.o
 .debug_info    0x0000263f     0x1cb8 ./src/S2E/S2E.o
 .debug_info    0x000042f7      0x289 ./src/PlatformHandler/eepromHandler.o
 .debug_info    0x00004580      0xaf4 ./src/PlatformHandler/sspHandler.o
 .debug_info    0x00005074      0xd7b ./src/PlatformHandler/timerHandler.o
 .debug_info    0x00005def     0x13b8 ./src/PlatformHandler/uartHandler.o
 .debug_info    0x000071a7     0x1347 ./src/Internet/DNS/dns.o
 .debug_info    0x000084ee     0x1065 ./src/Internet/DHCP/dhcp.o
 .debug_info    0x00009553      0x878 ./src/Ethernet/W5500/w5500.o
 .debug_info    0x00009dcb     0x13fc ./src/Ethernet/socket.o
 .debug_info    0x0000b1c7     0x1d81 ./src/Ethernet/wizchip_conf.o
 .debug_info    0x0000cf48      0xdbd ./src/Configuration/ConfigData.o
 .debug_info    0x0000dd05     0x228a ./src/Configuration/ConfigMessage.o
 .debug_info    0x0000ff8f      0xa1b ./src/ATcmd/library/sockutil.o
 .debug_info    0x000109aa      0x28d ./src/ATcmd/library/util.o
 .debug_info    0x00010c37     0x410e ./src/ATcmd/atcmd.o
 .debug_info    0x00014d45     0x314a ./src/ATcmd/cmdrun.o
 .debug_info    0x00017e8f      0x346 ./src/cr_startup_lpc11exx.o
 .debug_info    0x000181d5       0x3b ./src/crp.o
 .debug_info    0x00018210      0xd77 ./src/main.o
 .debug_info    0x00018f87       0xc9 ./src/sysinit.o
 .debug_info    0x00019050     0x14fd C:\Users\boomw\Documents\lpcxpresso-workspace-wiz550s2e\wiznet_s2e_wiz550s2e_board\Release\libwiznet_s2e_wiz550s2e_board.a(board.o)
 .debug_info    0x0001a54d      0xaac C:\Users\boomw\Documents\lpcxpresso-workspace-wiz550s2e\wiznet_s2e_wiz550s2e_board\Release\libwiznet_s2e_wiz550s2e_board.a(board_sysinit.o)
 .debug_info    0x0001aff9       0xd8 C:\Users\boomw\Documents\lpcxpresso-workspace-wiz550s2e\lpc_chip_11exx\Release\liblpc_chip_11exx.a(chip_11xx.o)
 .debug_info    0x0001b0d1      0x8e7 C:\Users\boomw\Documents\lpcxpresso-workspace-wiz550s2e\lpc_chip_11exx\Release\liblpc_chip_11exx.a(clock_11xx.o)
 .debug_info    0x0001b9b8      0x9e9 C:\Users\boomw\Documents\lpcxpresso-workspace-wiz550s2e\lpc_chip_11exx\Release\liblpc_chip_11exx.a(gpio_11xx_1.o)
 .debug_info    0x0001c3a1      0x14f C:\Users\boomw\Documents\lpcxpresso-workspace-wiz550s2e\lpc_chip_11exx\Release\liblpc_chip_11exx.a(iocon_11xx.o)
 .debug_info    0x0001c4f0      0x4a1 C:\Users\boomw\Documents\lpcxpresso-workspace-wiz550s2e\lpc_chip_11exx\Release\liblpc_chip_11exx.a(ring_buffer.o)
 .debug_info    0x0001c991     0x1b59 C:\Users\boomw\Documents\lpcxpresso-workspace-wiz550s2e\lpc_chip_11exx\Release\liblpc_chip_11exx.a(ssp_11xx.o)
 .debug_info    0x0001e4ea      0x585 C:\Users\boomw\Documents\lpcxpresso-workspace-wiz550s2e\lpc_chip_11exx\Release\liblpc_chip_11exx.a(sysctl_11xx.o)
 .debug_info    0x0001ea6f      0x882 C:\Users\boomw\Documents\lpcxpresso-workspace-wiz550s2e\lpc_chip_11exx\Release\liblpc_chip_11exx.a(timer_11xx.o)
 .debug_info    0x0001f2f1     0x1283 C:\Users\boomw\Documents\lpcxpresso-workspace-wiz550s2e\lpc_chip_11exx\Release\liblpc_chip_11exx.a(uart_11xx.o)

.debug_abbrev   0x00000000     0x559a
 .debug_abbrev  0x00000000      0x17e ./src/modbus/mb.o
 .debug_abbrev  0x0000017e      0x1ce ./src/modbus/mbascii.o
 .debug_abbrev  0x0000034c       0xb3 ./src/modbus/mbcrc.o
 .debug_abbrev  0x000003ff      0x1ad ./src/modbus/mbrtu.o
 .debug_abbrev  0x000005ac      0x214 ./src/modbus/mbtcp.o
 .debug_abbrev  0x000007c0      0x292 ./src/modbus/mbtimer.o
 .debug_abbrev  0x00000a52      0x1a2 ./src/callback/dhcp_cb.o
 .debug_abbrev  0x00000bf4      0x3dc ./src/S2E/S2E.o
 .debug_abbrev  0x00000fd0      0x129 ./src/PlatformHandler/eepromHandler.o
 .debug_abbrev  0x000010f9      0x2e1 ./src/PlatformHandler/sspHandler.o
 .debug_abbrev  0x000013da      0x320 ./src/PlatformHandler/timerHandler.o
 .debug_abbrev  0x000016fa      0x3a2 ./src/PlatformHandler/uartHandler.o
 .debug_abbrev  0x00001a9c      0x2fc ./src/Internet/DNS/dns.o
 .debug_abbrev  0x00001d98      0x302 ./src/Internet/DHCP/dhcp.o
 .debug_abbrev  0x0000209a      0x21a ./src/Ethernet/W5500/w5500.o
 .debug_abbrev  0x000022b4      0x237 ./src/Ethernet/socket.o
 .debug_abbrev  0x000024eb      0x38d ./src/Ethernet/wizchip_conf.o
 .debug_abbrev  0x00002878      0x281 ./src/Configuration/ConfigData.o
 .debug_abbrev  0x00002af9      0x3aa ./src/Configuration/ConfigMessage.o
 .debug_abbrev  0x00002ea3      0x274 ./src/ATcmd/library/sockutil.o
 .debug_abbrev  0x00003117      0x109 ./src/ATcmd/library/util.o
 .debug_abbrev  0x00003220      0x467 ./src/ATcmd/atcmd.o
 .debug_abbrev  0x00003687      0x3df ./src/ATcmd/cmdrun.o
 .debug_abbrev  0x00003a66      0x185 ./src/cr_startup_lpc11exx.o
 .debug_abbrev  0x00003beb       0x33 ./src/crp.o
 .debug_abbrev  0x00003c1e      0x2c5 ./src/main.o
 .debug_abbrev  0x00003ee3       0x85 ./src/sysinit.o
 .debug_abbrev  0x00003f68      0x366 C:\Users\boomw\Documents\lpcxpresso-workspace-wiz550s2e\wiznet_s2e_wiz550s2e_board\Release\libwiznet_s2e_wiz550s2e_board.a(board.o)
 .debug_abbrev  0x000042ce      0x251 C:\Users\boomw\Documents\lpcxpresso-workspace-wiz550s2e\wiznet_s2e_wiz550s2e_board\Release\libwiznet_s2e_wiz550s2e_board.a(board_sysinit.o)
 .debug_abbrev  0x0000451f       0x98 C:\Users\boomw\Documents\lpcxpresso-workspace-wiz550s2e\lpc_chip_11exx\Release\liblpc_chip_11exx.a(chip_11xx.o)
 .debug_abbrev  0x000045b7      0x243 C:\Users\boomw\Documents\lpcxpresso-workspace-wiz550s2e\lpc_chip_11exx\Release\liblpc_chip_11exx.a(clock_11xx.o)
 .debug_abbrev  0x000047fa      0x1b7 C:\Users\boomw\Documents\lpcxpresso-workspace-wiz550s2e\lpc_chip_11exx\Release\liblpc_chip_11exx.a(gpio_11xx_1.o)
 .debug_abbrev  0x000049b1       0xc5 C:\Users\boomw\Documents\lpcxpresso-workspace-wiz550s2e\lpc_chip_11exx\Release\liblpc_chip_11exx.a(iocon_11xx.o)
 .debug_abbrev  0x00004a76      0x181 C:\Users\boomw\Documents\lpcxpresso-workspace-wiz550s2e\lpc_chip_11exx\Release\liblpc_chip_11exx.a(ring_buffer.o)
 .debug_abbrev  0x00004bf7      0x3d5 C:\Users\boomw\Documents\lpcxpresso-workspace-wiz550s2e\lpc_chip_11exx\Release\liblpc_chip_11exx.a(ssp_11xx.o)
 .debug_abbrev  0x00004fcc       0xcb C:\Users\boomw\Documents\lpcxpresso-workspace-wiz550s2e\lpc_chip_11exx\Release\liblpc_chip_11exx.a(sysctl_11xx.o)
 .debug_abbrev  0x00005097      0x1e9 C:\Users\boomw\Documents\lpcxpresso-workspace-wiz550s2e\lpc_chip_11exx\Release\liblpc_chip_11exx.a(timer_11xx.o)
 .debug_abbrev  0x00005280      0x31a C:\Users\boomw\Documents\lpcxpresso-workspace-wiz550s2e\lpc_chip_11exx\Release\liblpc_chip_11exx.a(uart_11xx.o)

.debug_loc      0x00000000    0x13172
 .debug_loc     0x00000000       0x92 ./src/modbus/mb.o
 .debug_loc     0x00000092      0xb37 ./src/modbus/mbascii.o
 .debug_loc     0x00000bc9      0x101 ./src/modbus/mbcrc.o
 .debug_loc     0x00000cca       0xb0 ./src/modbus/mbrtu.o
 .debug_loc     0x00000d7a      0x33a ./src/modbus/mbtcp.o
 .debug_loc     0x000010b4       0x4a ./src/modbus/mbtimer.o
 .debug_loc     0x000010fe       0x1e ./src/callback/dhcp_cb.o
 .debug_loc     0x0000111c     0x14cb ./src/S2E/S2E.o
 .debug_loc     0x000025e7      0x212 ./src/PlatformHandler/eepromHandler.o
 .debug_loc     0x000027f9       0xd1 ./src/PlatformHandler/sspHandler.o
 .debug_loc     0x000028ca      0x1a1 ./src/PlatformHandler/timerHandler.o
 .debug_loc     0x00002a6b      0x5ac ./src/PlatformHandler/uartHandler.o
 .debug_loc     0x00003017     0x4455 ./src/Internet/DNS/dns.o
 .debug_loc     0x0000746c      0xe6a ./src/Internet/DHCP/dhcp.o
 .debug_loc     0x000082d6      0x5b5 ./src/Ethernet/W5500/w5500.o
 .debug_loc     0x0000888b     0x1227 ./src/Ethernet/socket.o
 .debug_loc     0x00009ab2     0x14b0 ./src/Ethernet/wizchip_conf.o
 .debug_loc     0x0000af62      0x3a0 ./src/Configuration/ConfigData.o
 .debug_loc     0x0000b302      0xdf9 ./src/Configuration/ConfigMessage.o
 .debug_loc     0x0000c0fb      0x51f ./src/ATcmd/library/sockutil.o
 .debug_loc     0x0000c61a      0x3c1 ./src/ATcmd/library/util.o
 .debug_loc     0x0000c9db     0x24a9 ./src/ATcmd/atcmd.o
 .debug_loc     0x0000ee84     0x13fc ./src/ATcmd/cmdrun.o
 .debug_loc     0x00010280      0x2cd ./src/cr_startup_lpc11exx.o
 .debug_loc     0x0001054d       0x8f ./src/main.o
 .debug_loc     0x000105dc      0x323 C:\Users\boomw\Documents\lpcxpresso-workspace-wiz550s2e\wiznet_s2e_wiz550s2e_board\Release\libwiznet_s2e_wiz550s2e_board.a(board.o)
 .debug_loc     0x000108ff       0x4f C:\Users\boomw\Documents\lpcxpresso-workspace-wiz550s2e\wiznet_s2e_wiz550s2e_board\Release\libwiznet_s2e_wiz550s2e_board.a(board_sysinit.o)
 .debug_loc     0x0001094e      0x16c C:\Users\boomw\Documents\lpcxpresso-workspace-wiz550s2e\lpc_chip_11exx\Release\liblpc_chip_11exx.a(clock_11xx.o)
 .debug_loc     0x00010aba      0x370 C:\Users\boomw\Documents\lpcxpresso-workspace-wiz550s2e\lpc_chip_11exx\Release\liblpc_chip_11exx.a(gpio_11xx_1.o)
 .debug_loc     0x00010e2a       0x21 C:\Users\boomw\Documents\lpcxpresso-workspace-wiz550s2e\lpc_chip_11exx\Release\liblpc_chip_11exx.a(iocon_11xx.o)
 .debug_loc     0x00010e4b      0x5c9 C:\Users\boomw\Documents\lpcxpresso-workspace-wiz550s2e\lpc_chip_11exx\Release\liblpc_chip_11exx.a(ring_buffer.o)
 .debug_loc     0x00011414     0x10f3 C:\Users\boomw\Documents\lpcxpresso-workspace-wiz550s2e\lpc_chip_11exx\Release\liblpc_chip_11exx.a(ssp_11xx.o)
 .debug_loc     0x00012507       0xd0 C:\Users\boomw\Documents\lpcxpresso-workspace-wiz550s2e\lpc_chip_11exx\Release\liblpc_chip_11exx.a(sysctl_11xx.o)
 .debug_loc     0x000125d7      0x184 C:\Users\boomw\Documents\lpcxpresso-workspace-wiz550s2e\lpc_chip_11exx\Release\liblpc_chip_11exx.a(timer_11xx.o)
 .debug_loc     0x0001275b      0xa17 C:\Users\boomw\Documents\lpcxpresso-workspace-wiz550s2e\lpc_chip_11exx\Release\liblpc_chip_11exx.a(uart_11xx.o)

.debug_aranges  0x00000000      0xd00
 .debug_aranges
                0x00000000       0x38 ./src/modbus/mb.o
 .debug_aranges
                0x00000038       0x40 ./src/modbus/mbascii.o
 .debug_aranges
                0x00000078       0x20 ./src/modbus/mbcrc.o
 .debug_aranges
                0x00000098       0x30 ./src/modbus/mbrtu.o
 .debug_aranges
                0x000000c8       0x28 ./src/modbus/mbtcp.o
 .debug_aranges
                0x000000f0       0x38 ./src/modbus/mbtimer.o
 .debug_aranges
                0x00000128       0x28 ./src/callback/dhcp_cb.o
 .debug_aranges
                0x00000150       0x30 ./src/S2E/S2E.o
 .debug_aranges
                0x00000180       0x28 ./src/PlatformHandler/eepromHandler.o
 .debug_aranges
                0x000001a8       0x58 ./src/PlatformHandler/sspHandler.o
 .debug_aranges
                0x00000200       0x38 ./src/PlatformHandler/timerHandler.o
 .debug_aranges
                0x00000238       0x48 ./src/PlatformHandler/uartHandler.o
 .debug_aranges
                0x00000280       0x70 ./src/Internet/DNS/dns.o
 .debug_aranges
                0x000002f0       0xc0 ./src/Internet/DHCP/dhcp.o
 .debug_aranges
                0x000003b0       0x60 ./src/Ethernet/W5500/w5500.o
 .debug_aranges
                0x00000410       0x78 ./src/Ethernet/socket.o
 .debug_aranges
                0x00000488      0x138 ./src/Ethernet/wizchip_conf.o
 .debug_aranges
                0x000005c0       0x88 ./src/Configuration/ConfigData.o
 .debug_aranges
                0x00000648       0x40 ./src/Configuration/ConfigMessage.o
 .debug_aranges
                0x00000688       0x60 ./src/ATcmd/library/sockutil.o
 .debug_aranges
                0x000006e8       0x38 ./src/ATcmd/library/util.o
 .debug_aranges
                0x00000720       0xe8 ./src/ATcmd/atcmd.o
 .debug_aranges
                0x00000808       0xf8 ./src/ATcmd/cmdrun.o
 .debug_aranges
                0x00000900       0x60 ./src/cr_startup_lpc11exx.o
 .debug_aranges
                0x00000960       0x18 ./src/crp.o
 .debug_aranges
                0x00000978       0x20 ./src/main.o
 .debug_aranges
                0x00000998       0x20 ./src/sysinit.o
 .debug_aranges
                0x000009b8       0x88 C:\Users\boomw\Documents\lpcxpresso-workspace-wiz550s2e\wiznet_s2e_wiz550s2e_board\Release\libwiznet_s2e_wiz550s2e_board.a(board.o)
 .debug_aranges
                0x00000a40       0x20 C:\Users\boomw\Documents\lpcxpresso-workspace-wiz550s2e\wiznet_s2e_wiz550s2e_board\Release\libwiznet_s2e_wiz550s2e_board.a(board_sysinit.o)
 .debug_aranges
                0x00000a60       0x20 C:\Users\boomw\Documents\lpcxpresso-workspace-wiz550s2e\lpc_chip_11exx\Release\liblpc_chip_11exx.a(chip_11xx.o)
 .debug_aranges
                0x00000a80       0x68 C:\Users\boomw\Documents\lpcxpresso-workspace-wiz550s2e\lpc_chip_11exx\Release\liblpc_chip_11exx.a(clock_11xx.o)
 .debug_aranges
                0x00000ae8       0x48 C:\Users\boomw\Documents\lpcxpresso-workspace-wiz550s2e\lpc_chip_11exx\Release\liblpc_chip_11exx.a(gpio_11xx_1.o)
 .debug_aranges
                0x00000b30       0x20 C:\Users\boomw\Documents\lpcxpresso-workspace-wiz550s2e\lpc_chip_11exx\Release\liblpc_chip_11exx.a(iocon_11xx.o)
 .debug_aranges
                0x00000b50       0x40 C:\Users\boomw\Documents\lpcxpresso-workspace-wiz550s2e\lpc_chip_11exx\Release\liblpc_chip_11exx.a(ring_buffer.o)
 .debug_aranges
                0x00000b90       0x80 C:\Users\boomw\Documents\lpcxpresso-workspace-wiz550s2e\lpc_chip_11exx\Release\liblpc_chip_11exx.a(ssp_11xx.o)
 .debug_aranges
                0x00000c10       0x38 C:\Users\boomw\Documents\lpcxpresso-workspace-wiz550s2e\lpc_chip_11exx\Release\liblpc_chip_11exx.a(sysctl_11xx.o)
 .debug_aranges
                0x00000c48       0x38 C:\Users\boomw\Documents\lpcxpresso-workspace-wiz550s2e\lpc_chip_11exx\Release\liblpc_chip_11exx.a(timer_11xx.o)
 .debug_aranges
                0x00000c80       0x80 C:\Users\boomw\Documents\lpcxpresso-workspace-wiz550s2e\lpc_chip_11exx\Release\liblpc_chip_11exx.a(uart_11xx.o)

.debug_ranges   0x00000000     0x2080
 .debug_ranges  0x00000000       0x28 ./src/modbus/mb.o
 .debug_ranges  0x00000028       0xf8 ./src/modbus/mbascii.o
 .debug_ranges  0x00000120       0x10 ./src/modbus/mbcrc.o
 .debug_ranges  0x00000130       0x60 ./src/modbus/mbrtu.o
 .debug_ranges  0x00000190       0xd8 ./src/modbus/mbtcp.o
 .debug_ranges  0x00000268       0x70 ./src/modbus/mbtimer.o
 .debug_ranges  0x000002d8       0x18 ./src/callback/dhcp_cb.o
 .debug_ranges  0x000002f0      0x3d8 ./src/S2E/S2E.o
 .debug_ranges  0x000006c8       0x48 ./src/PlatformHandler/eepromHandler.o
 .debug_ranges  0x00000710       0xb8 ./src/PlatformHandler/sspHandler.o
 .debug_ranges  0x000007c8       0x58 ./src/PlatformHandler/timerHandler.o
 .debug_ranges  0x00000820       0x98 ./src/PlatformHandler/uartHandler.o
 .debug_ranges  0x000008b8      0x430 ./src/Internet/DNS/dns.o
 .debug_ranges  0x00000ce8      0x188 ./src/Internet/DHCP/dhcp.o
 .debug_ranges  0x00000e70       0x50 ./src/Ethernet/W5500/w5500.o
 .debug_ranges  0x00000ec0       0x80 ./src/Ethernet/socket.o
 .debug_ranges  0x00000f40      0x208 ./src/Ethernet/wizchip_conf.o
 .debug_ranges  0x00001148      0x198 ./src/Configuration/ConfigData.o
 .debug_ranges  0x000012e0      0x130 ./src/Configuration/ConfigMessage.o
 .debug_ranges  0x00001410       0x50 ./src/ATcmd/library/sockutil.o
 .debug_ranges  0x00001460       0x28 ./src/ATcmd/library/util.o
 .debug_ranges  0x00001488      0x1e0 ./src/ATcmd/atcmd.o
 .debug_ranges  0x00001668      0x208 ./src/ATcmd/cmdrun.o
 .debug_ranges  0x00001870       0x68 ./src/cr_startup_lpc11exx.o
 .debug_ranges  0x000018d8       0x58 ./src/main.o
 .debug_ranges  0x00001930       0x10 ./src/sysinit.o
 .debug_ranges  0x00001940      0x160 C:\Users\boomw\Documents\lpcxpresso-workspace-wiz550s2e\wiznet_s2e_wiz550s2e_board\Release\libwiznet_s2e_wiz550s2e_board.a(board.o)
 .debug_ranges  0x00001aa0       0x90 C:\Users\boomw\Documents\lpcxpresso-workspace-wiz550s2e\wiznet_s2e_wiz550s2e_board\Release\libwiznet_s2e_wiz550s2e_board.a(board_sysinit.o)
 .debug_ranges  0x00001b30       0x10 C:\Users\boomw\Documents\lpcxpresso-workspace-wiz550s2e\lpc_chip_11exx\Release\liblpc_chip_11exx.a(chip_11xx.o)
 .debug_ranges  0x00001b40       0x70 C:\Users\boomw\Documents\lpcxpresso-workspace-wiz550s2e\lpc_chip_11exx\Release\liblpc_chip_11exx.a(clock_11xx.o)
 .debug_ranges  0x00001bb0       0x68 C:\Users\boomw\Documents\lpcxpresso-workspace-wiz550s2e\lpc_chip_11exx\Release\liblpc_chip_11exx.a(gpio_11xx_1.o)
 .debug_ranges  0x00001c18       0x10 C:\Users\boomw\Documents\lpcxpresso-workspace-wiz550s2e\lpc_chip_11exx\Release\liblpc_chip_11exx.a(iocon_11xx.o)
 .debug_ranges  0x00001c28       0xc8 C:\Users\boomw\Documents\lpcxpresso-workspace-wiz550s2e\lpc_chip_11exx\Release\liblpc_chip_11exx.a(ring_buffer.o)
 .debug_ranges  0x00001cf0      0x1c0 C:\Users\boomw\Documents\lpcxpresso-workspace-wiz550s2e\lpc_chip_11exx\Release\liblpc_chip_11exx.a(ssp_11xx.o)
 .debug_ranges  0x00001eb0       0x28 C:\Users\boomw\Documents\lpcxpresso-workspace-wiz550s2e\lpc_chip_11exx\Release\liblpc_chip_11exx.a(sysctl_11xx.o)
 .debug_ranges  0x00001ed8       0x28 C:\Users\boomw\Documents\lpcxpresso-workspace-wiz550s2e\lpc_chip_11exx\Release\liblpc_chip_11exx.a(timer_11xx.o)
 .debug_ranges  0x00001f00      0x180 C:\Users\boomw\Documents\lpcxpresso-workspace-wiz550s2e\lpc_chip_11exx\Release\liblpc_chip_11exx.a(uart_11xx.o)

.debug_line     0x00000000     0x8bfc
 .debug_line    0x00000000      0x321 ./src/modbus/mb.o
 .debug_line    0x00000321      0x29c ./src/modbus/mbascii.o
 .debug_line    0x000005bd       0xee ./src/modbus/mbcrc.o
 .debug_line    0x000006ab      0x277 ./src/modbus/mbrtu.o
 .debug_line    0x00000922      0x339 ./src/modbus/mbtcp.o
 .debug_line    0x00000c5b      0x217 ./src/modbus/mbtimer.o
 .debug_line    0x00000e72      0x1dd ./src/callback/dhcp_cb.o
 .debug_line    0x0000104f      0x8d7 ./src/S2E/S2E.o
 .debug_line    0x00001926      0x165 ./src/PlatformHandler/eepromHandler.o
 .debug_line    0x00001a8b      0x2f9 ./src/PlatformHandler/sspHandler.o
 .debug_line    0x00001d84      0x505 ./src/PlatformHandler/timerHandler.o
 .debug_line    0x00002289      0x31d ./src/PlatformHandler/uartHandler.o
 .debug_line    0x000025a6      0x804 ./src/Internet/DNS/dns.o
 .debug_line    0x00002daa      0x71d ./src/Internet/DHCP/dhcp.o
 .debug_line    0x000034c7      0x246 ./src/Ethernet/W5500/w5500.o
 .debug_line    0x0000370d      0x4eb ./src/Ethernet/socket.o
 .debug_line    0x00003bf8      0x5f5 ./src/Ethernet/wizchip_conf.o
 .debug_line    0x000041ed      0x467 ./src/Configuration/ConfigData.o
 .debug_line    0x00004654      0x462 ./src/Configuration/ConfigMessage.o
 .debug_line    0x00004ab6      0x34e ./src/ATcmd/library/sockutil.o
 .debug_line    0x00004e04      0x179 ./src/ATcmd/library/util.o
 .debug_line    0x00004f7d     0x1072 ./src/ATcmd/atcmd.o
 .debug_line    0x00005fef      0xa0a ./src/ATcmd/cmdrun.o
 .debug_line    0x000069f9       0xb0 ./src/cr_startup_lpc11exx.o
 .debug_line    0x00006aa9       0x2d ./src/crp.o
 .debug_line    0x00006ad6      0x58b ./src/main.o
 .debug_line    0x00007061      0x145 ./src/sysinit.o
 .debug_line    0x000071a6      0x415 C:\Users\boomw\Documents\lpcxpresso-workspace-wiz550s2e\wiznet_s2e_wiz550s2e_board\Release\libwiznet_s2e_wiz550s2e_board.a(board.o)
 .debug_line    0x000075bb      0x18d C:\Users\boomw\Documents\lpcxpresso-workspace-wiz550s2e\wiznet_s2e_wiz550s2e_board\Release\libwiznet_s2e_wiz550s2e_board.a(board_sysinit.o)
 .debug_line    0x00007748       0xf3 C:\Users\boomw\Documents\lpcxpresso-workspace-wiz550s2e\lpc_chip_11exx\Release\liblpc_chip_11exx.a(chip_11xx.o)
 .debug_line    0x0000783b      0x1f9 C:\Users\boomw\Documents\lpcxpresso-workspace-wiz550s2e\lpc_chip_11exx\Release\liblpc_chip_11exx.a(clock_11xx.o)
 .debug_line    0x00007a34      0x1b9 C:\Users\boomw\Documents\lpcxpresso-workspace-wiz550s2e\lpc_chip_11exx\Release\liblpc_chip_11exx.a(gpio_11xx_1.o)
 .debug_line    0x00007bed       0xf3 C:\Users\boomw\Documents\lpcxpresso-workspace-wiz550s2e\lpc_chip_11exx\Release\liblpc_chip_11exx.a(iocon_11xx.o)
 .debug_line    0x00007ce0      0x25b C:\Users\boomw\Documents\lpcxpresso-workspace-wiz550s2e\lpc_chip_11exx\Release\liblpc_chip_11exx.a(ring_buffer.o)
 .debug_line    0x00007f3b      0x64e C:\Users\boomw\Documents\lpcxpresso-workspace-wiz550s2e\lpc_chip_11exx\Release\liblpc_chip_11exx.a(ssp_11xx.o)
 .debug_line    0x00008589      0x136 C:\Users\boomw\Documents\lpcxpresso-workspace-wiz550s2e\lpc_chip_11exx\Release\liblpc_chip_11exx.a(sysctl_11xx.o)
 .debug_line    0x000086bf      0x184 C:\Users\boomw\Documents\lpcxpresso-workspace-wiz550s2e\lpc_chip_11exx\Release\liblpc_chip_11exx.a(timer_11xx.o)
 .debug_line    0x00008843      0x3b9 C:\Users\boomw\Documents\lpcxpresso-workspace-wiz550s2e\lpc_chip_11exx\Release\liblpc_chip_11exx.a(uart_11xx.o)

.debug_str      0x00000000     0x51f3
 .debug_str     0x00000000      0x49a ./src/modbus/mb.o
                                0x526 (size before relaxing)
 .debug_str     0x0000049a      0x11f ./src/modbus/mbascii.o
                                0x367 (size before relaxing)
 .debug_str     0x000005b9       0x39 ./src/modbus/mbcrc.o
                                0x215 (size before relaxing)
 .debug_str     0x000005f2      0x110 ./src/modbus/mbrtu.o
                                0x39f (size before relaxing)
 .debug_str     0x00000702       0x9e ./src/modbus/mbtcp.o
                                0x582 (size before relaxing)
 .debug_str     0x000007a0      0x3ff ./src/modbus/mbtimer.o
                                0x652 (size before relaxing)
 .debug_str     0x00000b9f      0x15f ./src/callback/dhcp_cb.o
                                0x548 (size before relaxing)
 .debug_str     0x00000cfe      0x5f7 ./src/S2E/S2E.o
                                0xb12 (size before relaxing)
 .debug_str     0x000012f5       0x87 ./src/PlatformHandler/eepromHandler.o
                                0x265 (size before relaxing)
 .debug_str     0x0000137c      0x3f8 ./src/PlatformHandler/sspHandler.o
                                0x6f1 (size before relaxing)
 .debug_str     0x00001774      0x1af ./src/PlatformHandler/timerHandler.o
                                0xa37 (size before relaxing)
 .debug_str     0x00001923      0x23b ./src/PlatformHandler/uartHandler.o
                                0xaae (size before relaxing)
 .debug_str     0x00001b5e      0x153 ./src/Internet/DNS/dns.o
                                0x378 (size before relaxing)
 .debug_str     0x00001cb1      0x6c2 ./src/Internet/DHCP/dhcp.o
                                0x92d (size before relaxing)
 .debug_str     0x00002373       0xe5 ./src/Ethernet/W5500/w5500.o
                                0x300 (size before relaxing)
 .debug_str     0x00002458      0x185 ./src/Ethernet/socket.o
                                0x4aa (size before relaxing)
 .debug_str     0x000025dd      0x445 ./src/Ethernet/wizchip_conf.o
                                0x904 (size before relaxing)
 .debug_str     0x00002a22       0xb5 ./src/Configuration/ConfigData.o
                                0x62c (size before relaxing)
 .debug_str     0x00002ad7      0x40d ./src/Configuration/ConfigMessage.o
                                0xbe0 (size before relaxing)
 .debug_str     0x00002ee4      0x101 ./src/ATcmd/library/sockutil.o
                                0x437 (size before relaxing)
 .debug_str     0x00002fe5       0x63 ./src/ATcmd/library/util.o
                                0x241 (size before relaxing)
 .debug_str     0x00003048      0x427 ./src/ATcmd/atcmd.o
                                0xa33 (size before relaxing)
 .debug_str     0x0000346f      0x11a ./src/ATcmd/cmdrun.o
                                0xb37 (size before relaxing)
 .debug_str     0x00003589      0x16b ./src/cr_startup_lpc11exx.o
                                0x291 (size before relaxing)
 .debug_str     0x000036f4       0x16 ./src/crp.o
                                0x11d (size before relaxing)
 .debug_str     0x0000370a      0x37b ./src/main.o
                                0x937 (size before relaxing)
 .debug_str     0x00003a85       0x22 ./src/sysinit.o
                                0x1d9 (size before relaxing)
 .debug_str     0x00003aa7      0x5eb C:\Users\boomw\Documents\lpcxpresso-workspace-wiz550s2e\wiznet_s2e_wiz550s2e_board\Release\libwiznet_s2e_wiz550s2e_board.a(board.o)
                                0xd7c (size before relaxing)
 .debug_str     0x00004092      0x312 C:\Users\boomw\Documents\lpcxpresso-workspace-wiz550s2e\wiznet_s2e_wiz550s2e_board\Release\libwiznet_s2e_wiz550s2e_board.a(board_sysinit.o)
                                0xa5f (size before relaxing)
 .debug_str     0x000043a4       0x62 C:\Users\boomw\Documents\lpcxpresso-workspace-wiz550s2e\lpc_chip_11exx\Release\liblpc_chip_11exx.a(chip_11xx.o)
                                0x1f2 (size before relaxing)
 .debug_str     0x00004406      0x3b7 C:\Users\boomw\Documents\lpcxpresso-workspace-wiz550s2e\lpc_chip_11exx\Release\liblpc_chip_11exx.a(clock_11xx.o)
                                0x998 (size before relaxing)
 .debug_str     0x000047bd       0xf0 C:\Users\boomw\Documents\lpcxpresso-workspace-wiz550s2e\lpc_chip_11exx\Release\liblpc_chip_11exx.a(gpio_11xx_1.o)
                                0x848 (size before relaxing)
 .debug_str     0x000048ad       0x1b C:\Users\boomw\Documents\lpcxpresso-workspace-wiz550s2e\lpc_chip_11exx\Release\liblpc_chip_11exx.a(iocon_11xx.o)
                                0x1f7 (size before relaxing)
 .debug_str     0x000048c8       0x84 C:\Users\boomw\Documents\lpcxpresso-workspace-wiz550s2e\lpc_chip_11exx\Release\liblpc_chip_11exx.a(ring_buffer.o)
                                0x29d (size before relaxing)
 .debug_str     0x0000494c      0x579 C:\Users\boomw\Documents\lpcxpresso-workspace-wiz550s2e\lpc_chip_11exx\Release\liblpc_chip_11exx.a(ssp_11xx.o)
                                0xf43 (size before relaxing)
 .debug_str     0x00004ec5       0x7b C:\Users\boomw\Documents\lpcxpresso-workspace-wiz550s2e\lpc_chip_11exx\Release\liblpc_chip_11exx.a(sysctl_11xx.o)
                                0x4e8 (size before relaxing)
 .debug_str     0x00004f40      0x101 C:\Users\boomw\Documents\lpcxpresso-workspace-wiz550s2e\lpc_chip_11exx\Release\liblpc_chip_11exx.a(timer_11xx.o)
                                0x860 (size before relaxing)
 .debug_str     0x00005041      0x1b2 C:\Users\boomw\Documents\lpcxpresso-workspace-wiz550s2e\lpc_chip_11exx\Release\liblpc_chip_11exx.a(uart_11xx.o)
                                0xaa9 (size before relaxing)

.comment        0x00000000       0xe0
 .comment       0x00000000       0x70 ./src/modbus/mb.o
                                 0x71 (size before relaxing)
 .comment       0x00000000       0x71 ./src/modbus/mbascii.o
 .comment       0x00000000       0x71 ./src/modbus/mbcrc.o
 .comment       0x00000000       0x71 ./src/modbus/mbrtu.o
 .comment       0x00000000       0x71 ./src/modbus/mbtcp.o
 .comment       0x00000000       0x71 ./src/modbus/mbtimer.o
 .comment       0x00000000       0x71 ./src/callback/dhcp_cb.o
 .comment       0x00000000       0x71 ./src/S2E/S2E.o
 .comment       0x00000000       0x71 ./src/PlatformHandler/eepromHandler.o
 .comment       0x00000000       0x71 ./src/PlatformHandler/sspHandler.o
 .comment       0x00000000       0x71 ./src/PlatformHandler/timerHandler.o
 .comment       0x00000000       0x71 ./src/PlatformHandler/uartHandler.o
 .comment       0x00000000       0x71 ./src/Internet/DNS/dns.o
 .comment       0x00000000       0x71 ./src/Internet/DHCP/dhcp.o
 .comment       0x00000000       0x71 ./src/Ethernet/W5500/w5500.o
 .comment       0x00000000       0x71 ./src/Ethernet/socket.o
 .comment       0x00000000       0x71 ./src/Ethernet/wizchip_conf.o
 .comment       0x00000000       0x71 ./src/Configuration/ConfigData.o
 .comment       0x00000000       0x71 ./src/Configuration/ConfigMessage.o
 .comment       0x00000000       0x71 ./src/ATcmd/library/sockutil.o
 .comment       0x00000000       0x71 ./src/ATcmd/library/util.o
 .comment       0x00000000       0x71 ./src/ATcmd/atcmd.o
 .comment       0x00000000       0x71 ./src/ATcmd/cmdrun.o
 .comment       0x00000000       0x71 ./src/cr_startup_lpc11exx.o
 .comment       0x00000000       0x71 ./src/crp.o
 .comment       0x00000000       0x71 ./src/main.o
 .comment       0x00000000       0x71 ./src/sysinit.o
 .comment       0x00000000       0x71 C:\Users\boomw\Documents\lpcxpresso-workspace-wiz550s2e\wiznet_s2e_wiz550s2e_board\Release\libwiznet_s2e_wiz550s2e_board.a(board.o)
 .comment       0x00000000       0x71 C:\Users\boomw\Documents\lpcxpresso-workspace-wiz550s2e\wiznet_s2e_wiz550s2e_board\Release\libwiznet_s2e_wiz550s2e_board.a(board_sysinit.o)
 .comment       0x00000000       0x71 C:\Users\boomw\Documents\lpcxpresso-workspace-wiz550s2e\lpc_chip_11exx\Release\liblpc_chip_11exx.a(chip_11xx.o)
 .comment       0x00000000       0x71 C:\Users\boomw\Documents\lpcxpresso-workspace-wiz550s2e\lpc_chip_11exx\Release\liblpc_chip_11exx.a(clock_11xx.o)
 .comment       0x00000000       0x71 C:\Users\boomw\Documents\lpcxpresso-workspace-wiz550s2e\lpc_chip_11exx\Release\liblpc_chip_11exx.a(gpio_11xx_1.o)
 .comment       0x00000000       0x71 C:\Users\boomw\Documents\lpcxpresso-workspace-wiz550s2e\lpc_chip_11exx\Release\liblpc_chip_11exx.a(iocon_11xx.o)
 .comment       0x00000000       0x71 C:\Users\boomw\Documents\lpcxpresso-workspace-wiz550s2e\lpc_chip_11exx\Release\liblpc_chip_11exx.a(ring_buffer.o)
 .comment       0x00000000       0x71 C:\Users\boomw\Documents\lpcxpresso-workspace-wiz550s2e\lpc_chip_11exx\Release\liblpc_chip_11exx.a(ssp_11xx.o)
 .comment       0x00000000       0x71 C:\Users\boomw\Documents\lpcxpresso-workspace-wiz550s2e\lpc_chip_11exx\Release\liblpc_chip_11exx.a(sysctl_11xx.o)
 .comment       0x00000000       0x71 C:\Users\boomw\Documents\lpcxpresso-workspace-wiz550s2e\lpc_chip_11exx\Release\liblpc_chip_11exx.a(timer_11xx.o)
 .comment       0x00000000       0x71 C:\Users\boomw\Documents\lpcxpresso-workspace-wiz550s2e\lpc_chip_11exx\Release\liblpc_chip_11exx.a(uart_11xx.o)
 .comment       0x00000070       0x70 c:/nxp/lpcxpresso_7.5.0_254/lpcxpresso/tools/bin/../lib/gcc/arm-none-eabi/4.8.4/../../../../arm-none-eabi/lib/armv6-m\libcr_nohost.a(_cr__main.o)
                                 0x71 (size before relaxing)
 .comment       0x00000000       0x71 c:/nxp/lpcxpresso_7.5.0_254/lpcxpresso/tools/bin/../lib/gcc/arm-none-eabi/4.8.4/../../../../arm-none-eabi/lib/armv6-m\libcr_c.a(memcpy.o)
 .comment       0x00000000       0x71 c:/nxp/lpcxpresso_7.5.0_254/lpcxpresso/tools/bin/../lib/gcc/arm-none-eabi/4.8.4/../../../../arm-none-eabi/lib/armv6-m\libcr_c.a(memset.o)
 .comment       0x00000000       0x71 c:/nxp/lpcxpresso_7.5.0_254/lpcxpresso/tools/bin/../lib/gcc/arm-none-eabi/4.8.4/../../../../arm-none-eabi/lib/armv6-m\libcr_c.a(alloc.o)
 .comment       0x00000000       0x71 c:/nxp/lpcxpresso_7.5.0_254/lpcxpresso/tools/bin/../lib/gcc/arm-none-eabi/4.8.4/../../../../arm-none-eabi/lib/armv6-m\libcr_c.a(ctype.o)
 .comment       0x00000000       0x71 c:/nxp/lpcxpresso_7.5.0_254/lpcxpresso/tools/bin/../lib/gcc/arm-none-eabi/4.8.4/../../../../arm-none-eabi/lib/armv6-m\libcr_c.a(fpprintf.o)
 .comment       0x00000000       0x71 c:/nxp/lpcxpresso_7.5.0_254/lpcxpresso/tools/bin/../lib/gcc/arm-none-eabi/4.8.4/../../../../arm-none-eabi/lib/armv6-m\libcr_c.a(initio.o)
 .comment       0x00000000       0x71 c:/nxp/lpcxpresso_7.5.0_254/lpcxpresso/tools/bin/../lib/gcc/arm-none-eabi/4.8.4/../../../../arm-none-eabi/lib/armv6-m\libcr_c.a(memcmp.o)
 .comment       0x00000000       0x71 c:/nxp/lpcxpresso_7.5.0_254/lpcxpresso/tools/bin/../lib/gcc/arm-none-eabi/4.8.4/../../../../arm-none-eabi/lib/armv6-m\libcr_c.a(printf.o)
 .comment       0x00000000       0x71 c:/nxp/lpcxpresso_7.5.0_254/lpcxpresso/tools/bin/../lib/gcc/arm-none-eabi/4.8.4/../../../../arm-none-eabi/lib/armv6-m\libcr_c.a(scanf.o)
 .comment       0x00000000       0x71 c:/nxp/lpcxpresso_7.5.0_254/lpcxpresso/tools/bin/../lib/gcc/arm-none-eabi/4.8.4/../../../../arm-none-eabi/lib/armv6-m\libcr_c.a(setvbuf.o)
 .comment       0x00000000       0x71 c:/nxp/lpcxpresso_7.5.0_254/lpcxpresso/tools/bin/../lib/gcc/arm-none-eabi/4.8.4/../../../../arm-none-eabi/lib/armv6-m\libcr_c.a(stdio.o)
 .comment       0x00000000       0x71 c:/nxp/lpcxpresso_7.5.0_254/lpcxpresso/tools/bin/../lib/gcc/arm-none-eabi/4.8.4/../../../../arm-none-eabi/lib/armv6-m\libcr_c.a(strchr.o)
 .comment       0x00000000       0x71 c:/nxp/lpcxpresso_7.5.0_254/lpcxpresso/tools/bin/../lib/gcc/arm-none-eabi/4.8.4/../../../../arm-none-eabi/lib/armv6-m\libcr_c.a(strcmp.o)
 .comment       0x00000000       0x71 c:/nxp/lpcxpresso_7.5.0_254/lpcxpresso/tools/bin/../lib/gcc/arm-none-eabi/4.8.4/../../../../arm-none-eabi/lib/armv6-m\libcr_c.a(strcpy.o)
 .comment       0x00000000       0x71 c:/nxp/lpcxpresso_7.5.0_254/lpcxpresso/tools/bin/../lib/gcc/arm-none-eabi/4.8.4/../../../../arm-none-eabi/lib/armv6-m\libcr_c.a(strlen.o)
 .comment       0x00000000       0x71 c:/nxp/lpcxpresso_7.5.0_254/lpcxpresso/tools/bin/../lib/gcc/arm-none-eabi/4.8.4/../../../../arm-none-eabi/lib/armv6-m\libcr_c.a(strncpy.o)
 .comment       0x00000000       0x71 c:/nxp/lpcxpresso_7.5.0_254/lpcxpresso/tools/bin/../lib/gcc/arm-none-eabi/4.8.4/../../../../arm-none-eabi/lib/armv6-m\libcr_c.a(strtok.o)
 .comment       0x00000000       0x71 c:/nxp/lpcxpresso_7.5.0_254/lpcxpresso/tools/bin/../lib/gcc/arm-none-eabi/4.8.4/../../../../arm-none-eabi/lib/armv6-m\libcr_c.a(__init_alloc.o)
 .comment       0x00000000       0x71 c:/nxp/lpcxpresso_7.5.0_254/lpcxpresso/tools/bin/../lib/gcc/arm-none-eabi/4.8.4/../../../../arm-none-eabi/lib/armv6-m\libcr_c.a(_cr_sbrk.o)
 .comment       0x00000000       0x71 c:/nxp/lpcxpresso_7.5.0_254/lpcxpresso/tools/bin/../lib/gcc/arm-none-eabi/4.8.4/../../../../arm-none-eabi/lib/armv6-m\libcr_c.a(_deferredlazyseek.o)
 .comment       0x00000000       0x71 c:/nxp/lpcxpresso_7.5.0_254/lpcxpresso/tools/bin/../lib/gcc/arm-none-eabi/4.8.4/../../../../arm-none-eabi/lib/armv6-m\libcr_c.a(_fdopen.o)
 .comment       0x00000000       0x71 c:/nxp/lpcxpresso_7.5.0_254/lpcxpresso/tools/bin/../lib/gcc/arm-none-eabi/4.8.4/../../../../arm-none-eabi/lib/armv6-m\libcr_c.a(_fflush.o)
 .comment       0x00000000       0x71 c:/nxp/lpcxpresso_7.5.0_254/lpcxpresso/tools/bin/../lib/gcc/arm-none-eabi/4.8.4/../../../../arm-none-eabi/lib/armv6-m\libcr_c.a(_frexpl.o)
 .comment       0x00000000       0x71 c:/nxp/lpcxpresso_7.5.0_254/lpcxpresso/tools/bin/../lib/gcc/arm-none-eabi/4.8.4/../../../../arm-none-eabi/lib/armv6-m\libcr_c.a(_hugeval.o)
 .comment       0x00000000       0x71 c:/nxp/lpcxpresso_7.5.0_254/lpcxpresso/tools/bin/../lib/gcc/arm-none-eabi/4.8.4/../../../../arm-none-eabi/lib/armv6-m\libcr_c.a(_ldexpl.o)
 .comment       0x00000000       0x71 c:/nxp/lpcxpresso_7.5.0_254/lpcxpresso/tools/bin/../lib/gcc/arm-none-eabi/4.8.4/../../../../arm-none-eabi/lib/armv6-m\libcr_c.a(_writebuf.o)
 .comment       0x00000000       0x71 c:/nxp/lpcxpresso_7.5.0_254/lpcxpresso/tools/bin/../lib/gcc/arm-none-eabi/4.8.4/../../../../arm-none-eabi/lib/armv6-m\libcr_c.a(errno.o)
 .comment       0x00000000       0x71 c:/nxp/lpcxpresso_7.5.0_254/lpcxpresso/tools/bin/../lib/gcc/arm-none-eabi/4.8.4/../../../../arm-none-eabi/lib/armv6-m\libcr_c.a(fclose.o)
 .comment       0x00000000       0x71 c:/nxp/lpcxpresso_7.5.0_254/lpcxpresso/tools/bin/../lib/gcc/arm-none-eabi/4.8.4/../../../../arm-none-eabi/lib/armv6-m\libcr_c.a(fflush.o)
 .comment       0x00000000       0x71 c:/nxp/lpcxpresso_7.5.0_254/lpcxpresso/tools/bin/../lib/gcc/arm-none-eabi/4.8.4/../../../../arm-none-eabi/lib/armv6-m\libcr_c.a(fseek.o)
 .comment       0x00000000       0x71 c:/nxp/lpcxpresso_7.5.0_254/lpcxpresso/tools/bin/../lib/gcc/arm-none-eabi/4.8.4/../../../../arm-none-eabi/lib/armv6-m\libcr_c.a(ftell.o)
 .comment       0x00000000       0x71 c:/nxp/lpcxpresso_7.5.0_254/lpcxpresso/tools/bin/../lib/gcc/arm-none-eabi/4.8.4/../../../../arm-none-eabi/lib/armv6-m\libcr_c.a(remove.o)
 .comment       0x00000000       0x71 c:/nxp/lpcxpresso_7.5.0_254/lpcxpresso/tools/bin/../lib/gcc/arm-none-eabi/4.8.4/../../../../arm-none-eabi/lib/armv6-m\libcr_c.a(strcspn.o)
 .comment       0x00000000       0x71 c:/nxp/lpcxpresso_7.5.0_254/lpcxpresso/tools/bin/../lib/gcc/arm-none-eabi/4.8.4/../../../../arm-none-eabi/lib/armv6-m\libcr_c.a(strspn.o)
 .comment       0x00000000       0x71 c:/nxp/lpcxpresso_7.5.0_254/lpcxpresso/tools/bin/../lib/gcc/arm-none-eabi/4.8.4/../../../../arm-none-eabi/lib/armv6-m\libcr_c.a(_cr_check_heap.o)
 .comment       0x00000000       0x71 c:/nxp/lpcxpresso_7.5.0_254/lpcxpresso/tools/bin/../lib/gcc/arm-none-eabi/4.8.4/../../../../arm-none-eabi/lib/armv6-m\libcr_c.a(_do_fflush.o)
 .comment       0x00000000       0x71 c:/nxp/lpcxpresso_7.5.0_254/lpcxpresso/tools/bin/../lib/gcc/arm-none-eabi/4.8.4/armv6-m\libcr_eabihelpers.a(double.o)
 .comment       0x00000000       0x71 c:/nxp/lpcxpresso_7.5.0_254/lpcxpresso/tools/bin/../lib/gcc/arm-none-eabi/4.8.4/../../../../arm-none-eabi/lib/armv6-m\libcr_nohost.a(__sys_appexit.o)
 .comment       0x00000000       0x71 c:/nxp/lpcxpresso_7.5.0_254/lpcxpresso/tools/bin/../lib/gcc/arm-none-eabi/4.8.4/../../../../arm-none-eabi/lib/armv6-m\libcr_nohost.a(__sys_close.o)
 .comment       0x00000000       0x71 c:/nxp/lpcxpresso_7.5.0_254/lpcxpresso/tools/bin/../lib/gcc/arm-none-eabi/4.8.4/../../../../arm-none-eabi/lib/armv6-m\libcr_nohost.a(__sys_flen.o)
 .comment       0x00000000       0x71 c:/nxp/lpcxpresso_7.5.0_254/lpcxpresso/tools/bin/../lib/gcc/arm-none-eabi/4.8.4/../../../../arm-none-eabi/lib/armv6-m\libcr_nohost.a(__sys_istty.o)
 .comment       0x00000000       0x71 c:/nxp/lpcxpresso_7.5.0_254/lpcxpresso/tools/bin/../lib/gcc/arm-none-eabi/4.8.4/../../../../arm-none-eabi/lib/armv6-m\libcr_nohost.a(__sys_remove.o)
 .comment       0x00000000       0x71 c:/nxp/lpcxpresso_7.5.0_254/lpcxpresso/tools/bin/../lib/gcc/arm-none-eabi/4.8.4/../../../../arm-none-eabi/lib/armv6-m\libcr_nohost.a(__sys_seek.o)
 .comment       0x00000000       0x71 c:/nxp/lpcxpresso_7.5.0_254/lpcxpresso/tools/bin/../lib/gcc/arm-none-eabi/4.8.4/../../../../arm-none-eabi/lib/armv6-m\libcr_nohost.a(__sys_tmpnam.o)

.ARM.attributes
                0x00000000       0x2f
 .ARM.attributes
                0x00000000       0x31 ./src/modbus/mb.o
 .ARM.attributes
                0x00000031       0x31 ./src/modbus/mbascii.o
 .ARM.attributes
                0x00000062       0x31 ./src/modbus/mbcrc.o
 .ARM.attributes
                0x00000093       0x31 ./src/modbus/mbrtu.o
 .ARM.attributes
                0x000000c4       0x31 ./src/modbus/mbtcp.o
 .ARM.attributes
                0x000000f5       0x31 ./src/modbus/mbtimer.o
 .ARM.attributes
                0x00000126       0x31 ./src/callback/dhcp_cb.o
 .ARM.attributes
                0x00000157       0x31 ./src/S2E/S2E.o
 .ARM.attributes
                0x00000188       0x31 ./src/PlatformHandler/eepromHandler.o
 .ARM.attributes
                0x000001b9       0x31 ./src/PlatformHandler/sspHandler.o
 .ARM.attributes
                0x000001ea       0x31 ./src/PlatformHandler/timerHandler.o
 .ARM.attributes
                0x0000021b       0x31 ./src/PlatformHandler/uartHandler.o
 .ARM.attributes
                0x0000024c       0x31 ./src/Internet/DNS/dns.o
 .ARM.attributes
                0x0000027d       0x31 ./src/Internet/DHCP/dhcp.o
 .ARM.attributes
                0x000002ae       0x31 ./src/Ethernet/W5500/w5500.o
 .ARM.attributes
                0x000002df       0x31 ./src/Ethernet/socket.o
 .ARM.attributes
                0x00000310       0x31 ./src/Ethernet/wizchip_conf.o
 .ARM.attributes
                0x00000341       0x31 ./src/Configuration/ConfigData.o
 .ARM.attributes
                0x00000372       0x31 ./src/Configuration/ConfigMessage.o
 .ARM.attributes
                0x000003a3       0x31 ./src/ATcmd/library/sockutil.o
 .ARM.attributes
                0x000003d4       0x31 ./src/ATcmd/library/util.o
 .ARM.attributes
                0x00000405       0x31 ./src/ATcmd/atcmd.o
 .ARM.attributes
                0x00000436       0x31 ./src/ATcmd/cmdrun.o
 .ARM.attributes
                0x00000467       0x21 ./src/aeabi_romdiv_patch.o
 .ARM.attributes
                0x00000488       0x31 ./src/cr_startup_lpc11exx.o
 .ARM.attributes
                0x000004b9       0x31 ./src/crp.o
 .ARM.attributes
                0x000004ea       0x31 ./src/main.o
 .ARM.attributes
                0x0000051b       0x31 ./src/sysinit.o
 .ARM.attributes
                0x0000054c       0x31 C:\Users\boomw\Documents\lpcxpresso-workspace-wiz550s2e\wiznet_s2e_wiz550s2e_board\Release\libwiznet_s2e_wiz550s2e_board.a(board.o)
 .ARM.attributes
                0x0000057d       0x31 C:\Users\boomw\Documents\lpcxpresso-workspace-wiz550s2e\wiznet_s2e_wiz550s2e_board\Release\libwiznet_s2e_wiz550s2e_board.a(board_sysinit.o)
 .ARM.attributes
                0x000005ae       0x31 C:\Users\boomw\Documents\lpcxpresso-workspace-wiz550s2e\lpc_chip_11exx\Release\liblpc_chip_11exx.a(chip_11xx.o)
 .ARM.attributes
                0x000005df       0x31 C:\Users\boomw\Documents\lpcxpresso-workspace-wiz550s2e\lpc_chip_11exx\Release\liblpc_chip_11exx.a(clock_11xx.o)
 .ARM.attributes
                0x00000610       0x31 C:\Users\boomw\Documents\lpcxpresso-workspace-wiz550s2e\lpc_chip_11exx\Release\liblpc_chip_11exx.a(gpio_11xx_1.o)
 .ARM.attributes
                0x00000641       0x31 C:\Users\boomw\Documents\lpcxpresso-workspace-wiz550s2e\lpc_chip_11exx\Release\liblpc_chip_11exx.a(iocon_11xx.o)
 .ARM.attributes
                0x00000672       0x31 C:\Users\boomw\Documents\lpcxpresso-workspace-wiz550s2e\lpc_chip_11exx\Release\liblpc_chip_11exx.a(ring_buffer.o)
 .ARM.attributes
                0x000006a3       0x31 C:\Users\boomw\Documents\lpcxpresso-workspace-wiz550s2e\lpc_chip_11exx\Release\liblpc_chip_11exx.a(ssp_11xx.o)
 .ARM.attributes
                0x000006d4       0x31 C:\Users\boomw\Documents\lpcxpresso-workspace-wiz550s2e\lpc_chip_11exx\Release\liblpc_chip_11exx.a(sysctl_11xx.o)
 .ARM.attributes
                0x00000705       0x31 C:\Users\boomw\Documents\lpcxpresso-workspace-wiz550s2e\lpc_chip_11exx\Release\liblpc_chip_11exx.a(timer_11xx.o)
 .ARM.attributes
                0x00000736       0x31 C:\Users\boomw\Documents\lpcxpresso-workspace-wiz550s2e\lpc_chip_11exx\Release\liblpc_chip_11exx.a(uart_11xx.o)
 .ARM.attributes
                0x00000767       0x31 c:/nxp/lpcxpresso_7.5.0_254/lpcxpresso/tools/bin/../lib/gcc/arm-none-eabi/4.8.4/../../../../arm-none-eabi/lib/armv6-m\libcr_nohost.a(_cr__main.o)
 .ARM.attributes
                0x00000798       0x31 c:/nxp/lpcxpresso_7.5.0_254/lpcxpresso/tools/bin/../lib/gcc/arm-none-eabi/4.8.4/../../../../arm-none-eabi/lib/armv6-m\libcr_c.a(memcpy.o)
 .ARM.attributes
                0x000007c9       0x31 c:/nxp/lpcxpresso_7.5.0_254/lpcxpresso/tools/bin/../lib/gcc/arm-none-eabi/4.8.4/../../../../arm-none-eabi/lib/armv6-m\libcr_c.a(memset.o)
 .ARM.attributes
                0x000007fa       0x31 c:/nxp/lpcxpresso_7.5.0_254/lpcxpresso/tools/bin/../lib/gcc/arm-none-eabi/4.8.4/../../../../arm-none-eabi/lib/armv6-m\libcr_c.a(alloc.o)
 .ARM.attributes
                0x0000082b       0x31 c:/nxp/lpcxpresso_7.5.0_254/lpcxpresso/tools/bin/../lib/gcc/arm-none-eabi/4.8.4/../../../../arm-none-eabi/lib/armv6-m\libcr_c.a(ctype.o)
 .ARM.attributes
                0x0000085c       0x31 c:/nxp/lpcxpresso_7.5.0_254/lpcxpresso/tools/bin/../lib/gcc/arm-none-eabi/4.8.4/../../../../arm-none-eabi/lib/armv6-m\libcr_c.a(fpprintf.o)
 .ARM.attributes
                0x0000088d       0x31 c:/nxp/lpcxpresso_7.5.0_254/lpcxpresso/tools/bin/../lib/gcc/arm-none-eabi/4.8.4/../../../../arm-none-eabi/lib/armv6-m\libcr_c.a(initio.o)
 .ARM.attributes
                0x000008be       0x31 c:/nxp/lpcxpresso_7.5.0_254/lpcxpresso/tools/bin/../lib/gcc/arm-none-eabi/4.8.4/../../../../arm-none-eabi/lib/armv6-m\libcr_c.a(memcmp.o)
 .ARM.attributes
                0x000008ef       0x31 c:/nxp/lpcxpresso_7.5.0_254/lpcxpresso/tools/bin/../lib/gcc/arm-none-eabi/4.8.4/../../../../arm-none-eabi/lib/armv6-m\libcr_c.a(printf.o)
 .ARM.attributes
                0x00000920       0x31 c:/nxp/lpcxpresso_7.5.0_254/lpcxpresso/tools/bin/../lib/gcc/arm-none-eabi/4.8.4/../../../../arm-none-eabi/lib/armv6-m\libcr_c.a(scanf.o)
 .ARM.attributes
                0x00000951       0x31 c:/nxp/lpcxpresso_7.5.0_254/lpcxpresso/tools/bin/../lib/gcc/arm-none-eabi/4.8.4/../../../../arm-none-eabi/lib/armv6-m\libcr_c.a(setvbuf.o)
 .ARM.attributes
                0x00000982       0x31 c:/nxp/lpcxpresso_7.5.0_254/lpcxpresso/tools/bin/../lib/gcc/arm-none-eabi/4.8.4/../../../../arm-none-eabi/lib/armv6-m\libcr_c.a(stdio.o)
 .ARM.attributes
                0x000009b3       0x31 c:/nxp/lpcxpresso_7.5.0_254/lpcxpresso/tools/bin/../lib/gcc/arm-none-eabi/4.8.4/../../../../arm-none-eabi/lib/armv6-m\libcr_c.a(strchr.o)
 .ARM.attributes
                0x000009e4       0x31 c:/nxp/lpcxpresso_7.5.0_254/lpcxpresso/tools/bin/../lib/gcc/arm-none-eabi/4.8.4/../../../../arm-none-eabi/lib/armv6-m\libcr_c.a(strcmp.o)
 .ARM.attributes
                0x00000a15       0x31 c:/nxp/lpcxpresso_7.5.0_254/lpcxpresso/tools/bin/../lib/gcc/arm-none-eabi/4.8.4/../../../../arm-none-eabi/lib/armv6-m\libcr_c.a(strcpy.o)
 .ARM.attributes
                0x00000a46       0x31 c:/nxp/lpcxpresso_7.5.0_254/lpcxpresso/tools/bin/../lib/gcc/arm-none-eabi/4.8.4/../../../../arm-none-eabi/lib/armv6-m\libcr_c.a(strlen.o)
 .ARM.attributes
                0x00000a77       0x31 c:/nxp/lpcxpresso_7.5.0_254/lpcxpresso/tools/bin/../lib/gcc/arm-none-eabi/4.8.4/../../../../arm-none-eabi/lib/armv6-m\libcr_c.a(strncpy.o)
 .ARM.attributes
                0x00000aa8       0x31 c:/nxp/lpcxpresso_7.5.0_254/lpcxpresso/tools/bin/../lib/gcc/arm-none-eabi/4.8.4/../../../../arm-none-eabi/lib/armv6-m\libcr_c.a(strtok.o)
 .ARM.attributes
                0x00000ad9       0x31 c:/nxp/lpcxpresso_7.5.0_254/lpcxpresso/tools/bin/../lib/gcc/arm-none-eabi/4.8.4/../../../../arm-none-eabi/lib/armv6-m\libcr_c.a(__init_alloc.o)
 .ARM.attributes
                0x00000b0a       0x31 c:/nxp/lpcxpresso_7.5.0_254/lpcxpresso/tools/bin/../lib/gcc/arm-none-eabi/4.8.4/../../../../arm-none-eabi/lib/armv6-m\libcr_c.a(_cr_sbrk.o)
 .ARM.attributes
                0x00000b3b       0x31 c:/nxp/lpcxpresso_7.5.0_254/lpcxpresso/tools/bin/../lib/gcc/arm-none-eabi/4.8.4/../../../../arm-none-eabi/lib/armv6-m\libcr_c.a(_deferredlazyseek.o)
 .ARM.attributes
                0x00000b6c       0x31 c:/nxp/lpcxpresso_7.5.0_254/lpcxpresso/tools/bin/../lib/gcc/arm-none-eabi/4.8.4/../../../../arm-none-eabi/lib/armv6-m\libcr_c.a(_fdopen.o)
 .ARM.attributes
                0x00000b9d       0x31 c:/nxp/lpcxpresso_7.5.0_254/lpcxpresso/tools/bin/../lib/gcc/arm-none-eabi/4.8.4/../../../../arm-none-eabi/lib/armv6-m\libcr_c.a(_fflush.o)
 .ARM.attributes
                0x00000bce       0x31 c:/nxp/lpcxpresso_7.5.0_254/lpcxpresso/tools/bin/../lib/gcc/arm-none-eabi/4.8.4/../../../../arm-none-eabi/lib/armv6-m\libcr_c.a(_frexpl.o)
 .ARM.attributes
                0x00000bff       0x31 c:/nxp/lpcxpresso_7.5.0_254/lpcxpresso/tools/bin/../lib/gcc/arm-none-eabi/4.8.4/../../../../arm-none-eabi/lib/armv6-m\libcr_c.a(_hugeval.o)
 .ARM.attributes
                0x00000c30       0x31 c:/nxp/lpcxpresso_7.5.0_254/lpcxpresso/tools/bin/../lib/gcc/arm-none-eabi/4.8.4/../../../../arm-none-eabi/lib/armv6-m\libcr_c.a(_ldexpl.o)
 .ARM.attributes
                0x00000c61       0x31 c:/nxp/lpcxpresso_7.5.0_254/lpcxpresso/tools/bin/../lib/gcc/arm-none-eabi/4.8.4/../../../../arm-none-eabi/lib/armv6-m\libcr_c.a(_writebuf.o)
 .ARM.attributes
                0x00000c92       0x31 c:/nxp/lpcxpresso_7.5.0_254/lpcxpresso/tools/bin/../lib/gcc/arm-none-eabi/4.8.4/../../../../arm-none-eabi/lib/armv6-m\libcr_c.a(errno.o)
 .ARM.attributes
                0x00000cc3       0x31 c:/nxp/lpcxpresso_7.5.0_254/lpcxpresso/tools/bin/../lib/gcc/arm-none-eabi/4.8.4/../../../../arm-none-eabi/lib/armv6-m\libcr_c.a(fclose.o)
 .ARM.attributes
                0x00000cf4       0x31 c:/nxp/lpcxpresso_7.5.0_254/lpcxpresso/tools/bin/../lib/gcc/arm-none-eabi/4.8.4/../../../../arm-none-eabi/lib/armv6-m\libcr_c.a(fflush.o)
 .ARM.attributes
                0x00000d25       0x31 c:/nxp/lpcxpresso_7.5.0_254/lpcxpresso/tools/bin/../lib/gcc/arm-none-eabi/4.8.4/../../../../arm-none-eabi/lib/armv6-m\libcr_c.a(fseek.o)
 .ARM.attributes
                0x00000d56       0x31 c:/nxp/lpcxpresso_7.5.0_254/lpcxpresso/tools/bin/../lib/gcc/arm-none-eabi/4.8.4/../../../../arm-none-eabi/lib/armv6-m\libcr_c.a(ftell.o)
 .ARM.attributes
                0x00000d87       0x31 c:/nxp/lpcxpresso_7.5.0_254/lpcxpresso/tools/bin/../lib/gcc/arm-none-eabi/4.8.4/../../../../arm-none-eabi/lib/armv6-m\libcr_c.a(remove.o)
 .ARM.attributes
                0x00000db8       0x31 c:/nxp/lpcxpresso_7.5.0_254/lpcxpresso/tools/bin/../lib/gcc/arm-none-eabi/4.8.4/../../../../arm-none-eabi/lib/armv6-m\libcr_c.a(strcspn.o)
 .ARM.attributes
                0x00000de9       0x31 c:/nxp/lpcxpresso_7.5.0_254/lpcxpresso/tools/bin/../lib/gcc/arm-none-eabi/4.8.4/../../../../arm-none-eabi/lib/armv6-m\libcr_c.a(strspn.o)
 .ARM.attributes
                0x00000e1a       0x31 c:/nxp/lpcxpresso_7.5.0_254/lpcxpresso/tools/bin/../lib/gcc/arm-none-eabi/4.8.4/../../../../arm-none-eabi/lib/armv6-m\libcr_c.a(_cr_check_heap.o)
 .ARM.attributes
                0x00000e4b       0x31 c:/nxp/lpcxpresso_7.5.0_254/lpcxpresso/tools/bin/../lib/gcc/arm-none-eabi/4.8.4/../../../../arm-none-eabi/lib/armv6-m\libcr_c.a(_do_fflush.o)
 .ARM.attributes
                0x00000e7c       0x31 c:/nxp/lpcxpresso_7.5.0_254/lpcxpresso/tools/bin/../lib/gcc/arm-none-eabi/4.8.4/armv6-m\libcr_eabihelpers.a(double.o)
 .ARM.attributes
                0x00000ead       0x21 c:/nxp/lpcxpresso_7.5.0_254/lpcxpresso/tools/bin/../lib/gcc/arm-none-eabi/4.8.4/armv6-m\libcr_eabihelpers.a(llong.o)
 .ARM.attributes
                0x00000ece       0x21 c:/nxp/lpcxpresso_7.5.0_254/lpcxpresso/tools/bin/../lib/gcc/arm-none-eabi/4.8.4/armv6-m\libcr_eabihelpers.a(memcpy.o)
 .ARM.attributes
                0x00000eef       0x31 c:/nxp/lpcxpresso_7.5.0_254/lpcxpresso/tools/bin/../lib/gcc/arm-none-eabi/4.8.4/../../../../arm-none-eabi/lib/armv6-m\libcr_nohost.a(__sys_appexit.o)
 .ARM.attributes
                0x00000f20       0x31 c:/nxp/lpcxpresso_7.5.0_254/lpcxpresso/tools/bin/../lib/gcc/arm-none-eabi/4.8.4/../../../../arm-none-eabi/lib/armv6-m\libcr_nohost.a(__sys_close.o)
 .ARM.attributes
                0x00000f51       0x31 c:/nxp/lpcxpresso_7.5.0_254/lpcxpresso/tools/bin/../lib/gcc/arm-none-eabi/4.8.4/../../../../arm-none-eabi/lib/armv6-m\libcr_nohost.a(__sys_flen.o)
 .ARM.attributes
                0x00000f82       0x31 c:/nxp/lpcxpresso_7.5.0_254/lpcxpresso/tools/bin/../lib/gcc/arm-none-eabi/4.8.4/../../../../arm-none-eabi/lib/armv6-m\libcr_nohost.a(__sys_istty.o)
 .ARM.attributes
                0x00000fb3       0x31 c:/nxp/lpcxpresso_7.5.0_254/lpcxpresso/tools/bin/../lib/gcc/arm-none-eabi/4.8.4/../../../../arm-none-eabi/lib/armv6-m\libcr_nohost.a(__sys_remove.o)
 .ARM.attributes
                0x00000fe4       0x31 c:/nxp/lpcxpresso_7.5.0_254/lpcxpresso/tools/bin/../lib/gcc/arm-none-eabi/4.8.4/../../../../arm-none-eabi/lib/armv6-m\libcr_nohost.a(__sys_seek.o)
 .ARM.attributes
                0x00001015       0x31 c:/nxp/lpcxpresso_7.5.0_254/lpcxpresso/tools/bin/../lib/gcc/arm-none-eabi/4.8.4/../../../../arm-none-eabi/lib/armv6-m\libcr_nohost.a(__sys_tmpnam.o)

.debug_frame    0x00000000     0x225c
 .debug_frame   0x00000000       0x84 ./src/modbus/mb.o
 .debug_frame   0x00000084       0xa4 ./src/modbus/mbascii.o
 .debug_frame   0x00000128       0x2c ./src/modbus/mbcrc.o
 .debug_frame   0x00000154       0x5c ./src/modbus/mbrtu.o
 .debug_frame   0x000001b0       0x60 ./src/modbus/mbtcp.o
 .debug_frame   0x00000210       0x6c ./src/modbus/mbtimer.o
 .debug_frame   0x0000027c       0x3c ./src/callback/dhcp_cb.o
 .debug_frame   0x000002b8       0x88 ./src/S2E/S2E.o
 .debug_frame   0x00000340       0x40 ./src/PlatformHandler/eepromHandler.o
 .debug_frame   0x00000380       0xc8 ./src/PlatformHandler/sspHandler.o
 .debug_frame   0x00000448       0x7c ./src/PlatformHandler/timerHandler.o
 .debug_frame   0x000004c4       0xa8 ./src/PlatformHandler/uartHandler.o
 .debug_frame   0x0000056c      0x168 ./src/Internet/DNS/dns.o
 .debug_frame   0x000006d4      0x240 ./src/Internet/DHCP/dhcp.o
 .debug_frame   0x00000914      0x144 ./src/Ethernet/W5500/w5500.o
 .debug_frame   0x00000a58      0x1d0 ./src/Ethernet/socket.o
 .debug_frame   0x00000c28      0x338 ./src/Ethernet/wizchip_conf.o
 .debug_frame   0x00000f60      0x170 ./src/Configuration/ConfigData.o
 .debug_frame   0x000010d0       0xc4 ./src/Configuration/ConfigMessage.o
 .debug_frame   0x00001194       0xe8 ./src/ATcmd/library/sockutil.o
 .debug_frame   0x0000127c       0x88 ./src/ATcmd/library/util.o
 .debug_frame   0x00001304      0x37c ./src/ATcmd/atcmd.o
 .debug_frame   0x00001680      0x368 ./src/ATcmd/cmdrun.o
 .debug_frame   0x000019e8       0xb4 ./src/cr_startup_lpc11exx.o
 .debug_frame   0x00001a9c       0x3c ./src/main.o
 .debug_frame   0x00001ad8       0x28 ./src/sysinit.o
 .debug_frame   0x00001b00      0x140 C:\Users\boomw\Documents\lpcxpresso-workspace-wiz550s2e\wiznet_s2e_wiz550s2e_board\Release\libwiznet_s2e_wiz550s2e_board.a(board.o)
 .debug_frame   0x00001c40       0x30 C:\Users\boomw\Documents\lpcxpresso-workspace-wiz550s2e\wiznet_s2e_wiz550s2e_board\Release\libwiznet_s2e_wiz550s2e_board.a(board_sysinit.o)
 .debug_frame   0x00001c70       0x28 C:\Users\boomw\Documents\lpcxpresso-workspace-wiz550s2e\lpc_chip_11exx\Release\liblpc_chip_11exx.a(chip_11xx.o)
 .debug_frame   0x00001c98       0xd0 C:\Users\boomw\Documents\lpcxpresso-workspace-wiz550s2e\lpc_chip_11exx\Release\liblpc_chip_11exx.a(clock_11xx.o)
 .debug_frame   0x00001d68       0x90 C:\Users\boomw\Documents\lpcxpresso-workspace-wiz550s2e\lpc_chip_11exx\Release\liblpc_chip_11exx.a(gpio_11xx_1.o)
 .debug_frame   0x00001df8       0x20 C:\Users\boomw\Documents\lpcxpresso-workspace-wiz550s2e\lpc_chip_11exx\Release\liblpc_chip_11exx.a(iocon_11xx.o)
 .debug_frame   0x00001e18       0x98 C:\Users\boomw\Documents\lpcxpresso-workspace-wiz550s2e\lpc_chip_11exx\Release\liblpc_chip_11exx.a(ring_buffer.o)
 .debug_frame   0x00001eb0      0x168 C:\Users\boomw\Documents\lpcxpresso-workspace-wiz550s2e\lpc_chip_11exx\Release\liblpc_chip_11exx.a(ssp_11xx.o)
 .debug_frame   0x00002018       0x58 C:\Users\boomw\Documents\lpcxpresso-workspace-wiz550s2e\lpc_chip_11exx\Release\liblpc_chip_11exx.a(sysctl_11xx.o)
 .debug_frame   0x00002070       0x60 C:\Users\boomw\Documents\lpcxpresso-workspace-wiz550s2e\lpc_chip_11exx\Release\liblpc_chip_11exx.a(timer_11xx.o)
 .debug_frame   0x000020d0      0x18c C:\Users\boomw\Documents\lpcxpresso-workspace-wiz550s2e\lpc_chip_11exx\Release\liblpc_chip_11exx.a(uart_11xx.o)
